Product: MDK-ARM Professional 5.10
Component: ARM Compiler 5.04 update 1 (build 49)
Tool: armlink [5040049]

==============================================================================

Section Cross References

    startup_stm32f40_41xxx.o(STACK) refers (Special) to heapauxi.o(.text) for __use_two_region_memory
    startup_stm32f40_41xxx.o(HEAP) refers (Special) to heapauxi.o(.text) for __use_two_region_memory
    startup_stm32f40_41xxx.o(RESET) refers (Special) to heapauxi.o(.text) for __use_two_region_memory
    startup_stm32f40_41xxx.o(RESET) refers to startup_stm32f40_41xxx.o(STACK) for __initial_sp
    startup_stm32f40_41xxx.o(RESET) refers to startup_stm32f40_41xxx.o(.text) for Reset_Handler
    startup_stm32f40_41xxx.o(RESET) refers to usmart.o(i.TIM4_IRQHandler) for TIM4_IRQHandler
    startup_stm32f40_41xxx.o(RESET) refers to usart.o(i.USART1_IRQHandler) for USART1_IRQHandler
    startup_stm32f40_41xxx.o(RESET) refers to sdio_sdcard.o(i.SDIO_IRQHandler) for SDIO_IRQHandler
    startup_stm32f40_41xxx.o(RESET) refers to usbh_usr.o(i.OTG_FS_IRQHandler) for OTG_FS_IRQHandler
    startup_stm32f40_41xxx.o(.text) refers (Special) to heapauxi.o(.text) for __use_two_region_memory
    startup_stm32f40_41xxx.o(.text) refers to __main.o(!!!main) for __main
    startup_stm32f40_41xxx.o(.text) refers to startup_stm32f40_41xxx.o(HEAP) for Heap_Mem
    startup_stm32f40_41xxx.o(.text) refers to startup_stm32f40_41xxx.o(STACK) for Stack_Mem
    test.o(i.USH_User_App) refers to text.o(i.Show_Str) for Show_Str
    test.o(i.USH_User_App) refers to ff.o(i.f_mount) for f_mount
    test.o(i.USH_User_App) refers to exfuns.o(i.exf_getfree) for exf_getfree
    test.o(i.USH_User_App) refers to ili93xx.o(i.LCD_ShowString) for LCD_ShowString
    test.o(i.USH_User_App) refers to ili93xx.o(i.LCD_ShowNum) for LCD_ShowNum
    test.o(i.USH_User_App) refers to usb_hcd.o(i.HCD_IsDeviceConnected) for HCD_IsDeviceConnected
    test.o(i.USH_User_App) refers to delay.o(i.delay_ms) for delay_ms
    test.o(i.USH_User_App) refers to ili93xx.o(i.LCD_Fill) for LCD_Fill
    test.o(i.USH_User_App) refers to exfuns.o(.bss) for fs
    test.o(i.USH_User_App) refers to ili93xx.o(.data) for POINT_COLOR
    test.o(i.USH_User_App) refers to test.o(.bss) for USB_OTG_Core
    test.o(i.main) refers to sys.o(i.Stm32_Clock_Init) for Stm32_Clock_Init
    test.o(i.main) refers to delay.o(i.delay_init) for delay_init
    test.o(i.main) refers to usart.o(i.uart_init) for uart_init
    test.o(i.main) refers to led.o(i.LED_Init) for LED_Init
    test.o(i.main) refers to key.o(i.KEY_Init) for KEY_Init
    test.o(i.main) refers to ili93xx.o(i.LCD_Init) for LCD_Init
    test.o(i.main) refers to w25qxx.o(i.W25QXX_Init) for W25QXX_Init
    test.o(i.main) refers to malloc.o(i.my_mem_init) for my_mem_init
    test.o(i.main) refers to exfuns.o(i.exfuns_init) for exfuns_init
    test.o(i.main) refers to piclib.o(i.piclib_init) for piclib_init
    test.o(i.main) refers to ff.o(i.f_mount) for f_mount
    test.o(i.main) refers to ili93xx.o(i.LCD_ShowString) for LCD_ShowString
    test.o(i.main) refers to delay.o(i.delay_ms) for delay_ms
    test.o(i.main) refers to ili93xx.o(i.LCD_Fill) for LCD_Fill
    test.o(i.main) refers to fontupd.o(i.font_init) for font_init
    test.o(i.main) refers to text.o(i.Show_Str) for Show_Str
    test.o(i.main) refers to usbh_core.o(i.USBH_Init) for USBH_Init
    test.o(i.main) refers to noretval__2printf.o(.text) for __2printf
    test.o(i.main) refers to usbh_core.o(i.USBH_Process) for USBH_Process
    test.o(i.main) refers to usmart_config.o(.data) for usmart_dev
    test.o(i.main) refers to exfuns.o(.bss) for fs
    test.o(i.main) refers to ili93xx.o(.data) for POINT_COLOR
    test.o(i.main) refers to usbh_usr.o(.data) for USR_Callbacks
    test.o(i.main) refers to usbh_msc_core.o(.data) for USBH_MSC_cb
    test.o(i.main) refers to test.o(.bss) for USB_Host
    test.o(i.main) refers to usbusr.o(.data) for config_finish
    delay.o(i.delay_init) refers to delay.o(.data) for fac_us
    delay.o(i.delay_ms) refers to delay.o(i.delay_xms) for delay_xms
    delay.o(i.delay_us) refers to delay.o(.data) for fac_us
    delay.o(i.delay_xms) refers to delay.o(.data) for fac_ms
    sys.o(i.MY_NVIC_Init) refers to sys.o(i.MY_NVIC_PriorityGroupConfig) for MY_NVIC_PriorityGroupConfig
    sys.o(i.Stm32_Clock_Init) refers to sys.o(i.Sys_Clock_Set) for Sys_Clock_Set
    sys.o(i.Stm32_Clock_Init) refers to sys.o(i.MY_NVIC_SetVectorTable) for MY_NVIC_SetVectorTable
    sys.o(i.Sys_Standby) refers to sys.o(.emb_text) for WFI_SET
    usart.o(.rev16_text) refers (Special) to use_no_semi_2.o(.text) for __use_no_semihosting
    usart.o(.revsh_text) refers (Special) to use_no_semi_2.o(.text) for __use_no_semihosting
    usart.o(i.USART1_IRQHandler) refers (Special) to use_no_semi_2.o(.text) for __use_no_semihosting
    usart.o(i.USART1_IRQHandler) refers to usart.o(.data) for USART_RX_STA
    usart.o(i.USART1_IRQHandler) refers to usart.o(.bss) for USART_RX_BUF
    usart.o(i._sys_exit) refers (Special) to use_no_semi_2.o(.text) for __use_no_semihosting
    usart.o(i.fputc) refers (Special) to use_no_semi_2.o(.text) for __use_no_semihosting
    usart.o(i.uart_init) refers (Special) to use_no_semi_2.o(.text) for __use_no_semihosting
    usart.o(i.uart_init) refers to sys.o(i.GPIO_Set) for GPIO_Set
    usart.o(i.uart_init) refers to sys.o(i.GPIO_AF_Set) for GPIO_AF_Set
    usart.o(i.uart_init) refers to sys.o(i.MY_NVIC_Init) for MY_NVIC_Init
    usart.o(.bss) refers (Special) to use_no_semi_2.o(.text) for __use_no_semihosting
    usart.o(.data) refers (Special) to use_no_semi_2.o(.text) for __use_no_semihosting
    led.o(i.LED_Init) refers to sys.o(i.GPIO_Set) for GPIO_Set
    ili93xx.o(i.LCD_Clear) refers to ili93xx.o(i.LCD_SetCursor) for LCD_SetCursor
    ili93xx.o(i.LCD_Clear) refers to ili93xx.o(i.LCD_WriteRAM_Prepare) for LCD_WriteRAM_Prepare
    ili93xx.o(i.LCD_Clear) refers to ili93xx.o(.bss) for lcddev
    ili93xx.o(i.LCD_Color_Fill) refers to ili93xx.o(i.LCD_SetCursor) for LCD_SetCursor
    ili93xx.o(i.LCD_Color_Fill) refers to ili93xx.o(i.LCD_WriteRAM_Prepare) for LCD_WriteRAM_Prepare
    ili93xx.o(i.LCD_DisplayOff) refers to ili93xx.o(i.LCD_WR_REG) for LCD_WR_REG
    ili93xx.o(i.LCD_DisplayOff) refers to ili93xx.o(i.LCD_WriteReg) for LCD_WriteReg
    ili93xx.o(i.LCD_DisplayOff) refers to ili93xx.o(.bss) for lcddev
    ili93xx.o(i.LCD_DisplayOn) refers to ili93xx.o(i.LCD_WR_REG) for LCD_WR_REG
    ili93xx.o(i.LCD_DisplayOn) refers to ili93xx.o(i.LCD_WriteReg) for LCD_WriteReg
    ili93xx.o(i.LCD_DisplayOn) refers to ili93xx.o(.bss) for lcddev
    ili93xx.o(i.LCD_Display_Dir) refers to ili93xx.o(i.LCD_Scan_Dir) for LCD_Scan_Dir
    ili93xx.o(i.LCD_Display_Dir) refers to ili93xx.o(.bss) for lcddev
    ili93xx.o(i.LCD_DrawLine) refers to ili93xx.o(i.LCD_DrawPoint) for LCD_DrawPoint
    ili93xx.o(i.LCD_DrawPoint) refers to ili93xx.o(i.LCD_SetCursor) for LCD_SetCursor
    ili93xx.o(i.LCD_DrawPoint) refers to ili93xx.o(i.LCD_WriteRAM_Prepare) for LCD_WriteRAM_Prepare
    ili93xx.o(i.LCD_DrawPoint) refers to ili93xx.o(.data) for POINT_COLOR
    ili93xx.o(i.LCD_DrawRectangle) refers to ili93xx.o(i.LCD_DrawLine) for LCD_DrawLine
    ili93xx.o(i.LCD_Draw_Circle) refers to ili93xx.o(i.LCD_DrawPoint) for LCD_DrawPoint
    ili93xx.o(i.LCD_Fast_DrawPoint) refers to ili93xx.o(i.LCD_WR_REG) for LCD_WR_REG
    ili93xx.o(i.LCD_Fast_DrawPoint) refers to ili93xx.o(i.LCD_WR_DATA) for LCD_WR_DATA
    ili93xx.o(i.LCD_Fast_DrawPoint) refers to ili93xx.o(i.LCD_WriteReg) for LCD_WriteReg
    ili93xx.o(i.LCD_Fast_DrawPoint) refers to ili93xx.o(.bss) for lcddev
    ili93xx.o(i.LCD_Fill) refers to ili93xx.o(i.LCD_SetCursor) for LCD_SetCursor
    ili93xx.o(i.LCD_Fill) refers to ili93xx.o(i.LCD_WriteRAM_Prepare) for LCD_WriteRAM_Prepare
    ili93xx.o(i.LCD_Fill) refers to ili93xx.o(.bss) for lcddev
    ili93xx.o(i.LCD_Init) refers to _printf_percent.o(.ARM.Collect$$_printf_percent$$00000000) for _printf_percent
    ili93xx.o(i.LCD_Init) refers to _printf_x.o(.ARM.Collect$$_printf_percent$$0000000C) for _printf_x
    ili93xx.o(i.LCD_Init) refers to _printf_hex_int.o(.text) for _printf_longlong_hex
    ili93xx.o(i.LCD_Init) refers to sys.o(i.GPIO_Set) for GPIO_Set
    ili93xx.o(i.LCD_Init) refers to sys.o(i.GPIO_AF_Set) for GPIO_AF_Set
    ili93xx.o(i.LCD_Init) refers to delay.o(i.delay_ms) for delay_ms
    ili93xx.o(i.LCD_Init) refers to ili93xx.o(i.LCD_WriteReg) for LCD_WriteReg
    ili93xx.o(i.LCD_Init) refers to ili93xx.o(i.LCD_ReadReg) for LCD_ReadReg
    ili93xx.o(i.LCD_Init) refers to ili93xx.o(i.LCD_WR_REG) for LCD_WR_REG
    ili93xx.o(i.LCD_Init) refers to ili93xx.o(i.LCD_RD_DATA) for LCD_RD_DATA
    ili93xx.o(i.LCD_Init) refers to ili93xx.o(.bss) for lcddev
    ili93xx.o(i.LCD_Init) refers to noretval__2printf.o(.text) for __2printf
    ili93xx.o(i.LCD_Init) refers to ili93xx.o(i.LCD_WR_DATA) for LCD_WR_DATA
    ili93xx.o(i.LCD_Init) refers to delay.o(i.delay_us) for delay_us
    ili93xx.o(i.LCD_Init) refers to ili93xx.o(i.LCD_Display_Dir) for LCD_Display_Dir
    ili93xx.o(i.LCD_Init) refers to ili93xx.o(i.LCD_Clear) for LCD_Clear
    ili93xx.o(i.LCD_ReadPoint) refers to ili93xx.o(i.LCD_SetCursor) for LCD_SetCursor
    ili93xx.o(i.LCD_ReadPoint) refers to ili93xx.o(i.LCD_WR_REG) for LCD_WR_REG
    ili93xx.o(i.LCD_ReadPoint) refers to ili93xx.o(i.opt_delay) for opt_delay
    ili93xx.o(i.LCD_ReadPoint) refers to ili93xx.o(i.LCD_RD_DATA) for LCD_RD_DATA
    ili93xx.o(i.LCD_ReadPoint) refers to ili93xx.o(i.LCD_BGR2RGB) for LCD_BGR2RGB
    ili93xx.o(i.LCD_ReadPoint) refers to ili93xx.o(.bss) for lcddev
    ili93xx.o(i.LCD_ReadReg) refers to ili93xx.o(i.LCD_WR_REG) for LCD_WR_REG
    ili93xx.o(i.LCD_ReadReg) refers to delay.o(i.delay_us) for delay_us
    ili93xx.o(i.LCD_ReadReg) refers to ili93xx.o(i.LCD_RD_DATA) for LCD_RD_DATA
    ili93xx.o(i.LCD_Scan_Dir) refers to ili93xx.o(i.LCD_WriteReg) for LCD_WriteReg
    ili93xx.o(i.LCD_Scan_Dir) refers to ili93xx.o(i.LCD_WR_REG) for LCD_WR_REG
    ili93xx.o(i.LCD_Scan_Dir) refers to ili93xx.o(i.LCD_WR_DATA) for LCD_WR_DATA
    ili93xx.o(i.LCD_Scan_Dir) refers to ili93xx.o(.bss) for lcddev
    ili93xx.o(i.LCD_SetCursor) refers to ili93xx.o(i.LCD_WR_REG) for LCD_WR_REG
    ili93xx.o(i.LCD_SetCursor) refers to ili93xx.o(i.LCD_WR_DATA) for LCD_WR_DATA
    ili93xx.o(i.LCD_SetCursor) refers to ili93xx.o(i.LCD_WriteReg) for LCD_WriteReg
    ili93xx.o(i.LCD_SetCursor) refers to ili93xx.o(.bss) for lcddev
    ili93xx.o(i.LCD_Set_Window) refers to ili93xx.o(i.LCD_WR_REG) for LCD_WR_REG
    ili93xx.o(i.LCD_Set_Window) refers to ili93xx.o(i.LCD_WR_DATA) for LCD_WR_DATA
    ili93xx.o(i.LCD_Set_Window) refers to ili93xx.o(i.LCD_WriteReg) for LCD_WriteReg
    ili93xx.o(i.LCD_Set_Window) refers to ili93xx.o(i.LCD_SetCursor) for LCD_SetCursor
    ili93xx.o(i.LCD_Set_Window) refers to ili93xx.o(.bss) for lcddev
    ili93xx.o(i.LCD_ShowChar) refers to ili93xx.o(i.LCD_Fast_DrawPoint) for LCD_Fast_DrawPoint
    ili93xx.o(i.LCD_ShowChar) refers to ili93xx.o(.constdata) for asc2_1206
    ili93xx.o(i.LCD_ShowChar) refers to ili93xx.o(.data) for POINT_COLOR
    ili93xx.o(i.LCD_ShowChar) refers to ili93xx.o(.bss) for lcddev
    ili93xx.o(i.LCD_ShowNum) refers to ili93xx.o(i.LCD_Pow) for LCD_Pow
    ili93xx.o(i.LCD_ShowNum) refers to ili93xx.o(i.LCD_ShowChar) for LCD_ShowChar
    ili93xx.o(i.LCD_ShowString) refers to ili93xx.o(i.LCD_ShowChar) for LCD_ShowChar
    ili93xx.o(i.LCD_ShowxNum) refers to ili93xx.o(i.LCD_Pow) for LCD_Pow
    ili93xx.o(i.LCD_ShowxNum) refers to ili93xx.o(i.LCD_ShowChar) for LCD_ShowChar
    ili93xx.o(i.LCD_WriteRAM_Prepare) refers to ili93xx.o(.bss) for lcddev
    key.o(i.KEY_Init) refers to sys.o(i.GPIO_Set) for GPIO_Set
    key.o(i.KEY_Scan) refers to delay.o(i.delay_ms) for delay_ms
    key.o(i.KEY_Scan) refers to key.o(.data) for key_up
    sdio_sdcard.o(i.FindSCR) refers to sdio_sdcard.o(i.SDIO_Send_Cmd) for SDIO_Send_Cmd
    sdio_sdcard.o(i.FindSCR) refers to sdio_sdcard.o(i.CmdResp1Error) for CmdResp1Error
    sdio_sdcard.o(i.FindSCR) refers to sdio_sdcard.o(i.SDIO_Send_Data_Cfg) for SDIO_Send_Data_Cfg
    sdio_sdcard.o(i.IsCardProgramming) refers to sdio_sdcard.o(i.SDIO_Send_Cmd) for SDIO_Send_Cmd
    sdio_sdcard.o(i.IsCardProgramming) refers to sdio_sdcard.o(.data) for RCA
    sdio_sdcard.o(i.SDEnWideBus) refers to sdio_sdcard.o(i.FindSCR) for FindSCR
    sdio_sdcard.o(i.SDEnWideBus) refers to sdio_sdcard.o(i.SDIO_Send_Cmd) for SDIO_Send_Cmd
    sdio_sdcard.o(i.SDEnWideBus) refers to sdio_sdcard.o(i.CmdResp1Error) for CmdResp1Error
    sdio_sdcard.o(i.SDEnWideBus) refers to sdio_sdcard.o(.data) for RCA
    sdio_sdcard.o(i.SDIO_IRQHandler) refers to sdio_sdcard.o(i.SD_ProcessIRQSrc) for SD_ProcessIRQSrc
    sdio_sdcard.o(i.SD_EnableWideBusOperation) refers to sdio_sdcard.o(i.SDEnWideBus) for SDEnWideBus
    sdio_sdcard.o(i.SD_EnableWideBusOperation) refers to sdio_sdcard.o(.data) for CardType
    sdio_sdcard.o(i.SD_GetCardInfo) refers to sdio_sdcard.o(.data) for CardType
    sdio_sdcard.o(i.SD_GetCardInfo) refers to sdio_sdcard.o(.bss) for CSD_Tab
    sdio_sdcard.o(i.SD_GetState) refers to sdio_sdcard.o(i.SD_SendStatus) for SD_SendStatus
    sdio_sdcard.o(i.SD_Init) refers to sys.o(i.GPIO_Set) for GPIO_Set
    sdio_sdcard.o(i.SD_Init) refers to sys.o(i.GPIO_AF_Set) for GPIO_AF_Set
    sdio_sdcard.o(i.SD_Init) refers to sys.o(i.MY_NVIC_Init) for MY_NVIC_Init
    sdio_sdcard.o(i.SD_Init) refers to sdio_sdcard.o(i.SD_PowerON) for SD_PowerON
    sdio_sdcard.o(i.SD_Init) refers to sdio_sdcard.o(i.SD_InitializeCards) for SD_InitializeCards
    sdio_sdcard.o(i.SD_Init) refers to sdio_sdcard.o(i.SD_GetCardInfo) for SD_GetCardInfo
    sdio_sdcard.o(i.SD_Init) refers to sdio_sdcard.o(i.SD_SelectDeselect) for SD_SelectDeselect
    sdio_sdcard.o(i.SD_Init) refers to sdio_sdcard.o(i.SD_EnableWideBusOperation) for SD_EnableWideBusOperation
    sdio_sdcard.o(i.SD_Init) refers to sdio_sdcard.o(i.SDIO_Clock_Set) for SDIO_Clock_Set
    sdio_sdcard.o(i.SD_Init) refers to sdio_sdcard.o(i.SD_SetDeviceMode) for SD_SetDeviceMode
    sdio_sdcard.o(i.SD_Init) refers to sdio_sdcard.o(.bss) for SDCardInfo
    sdio_sdcard.o(i.SD_Init) refers to sdio_sdcard.o(.data) for CardType
    sdio_sdcard.o(i.SD_InitializeCards) refers to sdio_sdcard.o(i.SDIO_Send_Cmd) for SDIO_Send_Cmd
    sdio_sdcard.o(i.SD_InitializeCards) refers to sdio_sdcard.o(i.CmdResp2Error) for CmdResp2Error
    sdio_sdcard.o(i.SD_InitializeCards) refers to sdio_sdcard.o(i.CmdResp6Error) for CmdResp6Error
    sdio_sdcard.o(i.SD_InitializeCards) refers to sdio_sdcard.o(.data) for CardType
    sdio_sdcard.o(i.SD_InitializeCards) refers to sdio_sdcard.o(.bss) for CID_Tab
    sdio_sdcard.o(i.SD_PowerON) refers to sdio_sdcard.o(i.SDIO_Clock_Set) for SDIO_Clock_Set
    sdio_sdcard.o(i.SD_PowerON) refers to sdio_sdcard.o(i.SDIO_Send_Cmd) for SDIO_Send_Cmd
    sdio_sdcard.o(i.SD_PowerON) refers to sdio_sdcard.o(i.CmdError) for CmdError
    sdio_sdcard.o(i.SD_PowerON) refers to sdio_sdcard.o(i.CmdResp7Error) for CmdResp7Error
    sdio_sdcard.o(i.SD_PowerON) refers to sdio_sdcard.o(i.CmdResp1Error) for CmdResp1Error
    sdio_sdcard.o(i.SD_PowerON) refers to sdio_sdcard.o(i.CmdResp3Error) for CmdResp3Error
    sdio_sdcard.o(i.SD_PowerON) refers to sdio_sdcard.o(.data) for CardType
    sdio_sdcard.o(i.SD_ProcessIRQSrc) refers to sdio_sdcard.o(i.SDIO_Send_Cmd) for SDIO_Send_Cmd
    sdio_sdcard.o(i.SD_ProcessIRQSrc) refers to sdio_sdcard.o(i.CmdResp1Error) for CmdResp1Error
    sdio_sdcard.o(i.SD_ProcessIRQSrc) refers to sdio_sdcard.o(.data) for StopCondition
    sdio_sdcard.o(i.SD_ReadBlock) refers to sdio_sdcard.o(i.SDIO_Send_Data_Cfg) for SDIO_Send_Data_Cfg
    sdio_sdcard.o(i.SD_ReadBlock) refers to sdio_sdcard.o(i.convert_from_bytes_to_power_of_two) for convert_from_bytes_to_power_of_two
    sdio_sdcard.o(i.SD_ReadBlock) refers to sdio_sdcard.o(i.SDIO_Send_Cmd) for SDIO_Send_Cmd
    sdio_sdcard.o(i.SD_ReadBlock) refers to sdio_sdcard.o(i.CmdResp1Error) for CmdResp1Error
    sdio_sdcard.o(i.SD_ReadBlock) refers to sys.o(.emb_text) for INTX_DISABLE
    sdio_sdcard.o(i.SD_ReadBlock) refers to sdio_sdcard.o(i.SD_DMA_Config) for SD_DMA_Config
    sdio_sdcard.o(i.SD_ReadBlock) refers to sdio_sdcard.o(.data) for CardType
    sdio_sdcard.o(i.SD_ReadDisk) refers to sdio_sdcard.o(i.SD_ReadBlock) for SD_ReadBlock
    sdio_sdcard.o(i.SD_ReadDisk) refers to rt_memcpy_v6.o(.text) for __aeabi_memcpy
    sdio_sdcard.o(i.SD_ReadDisk) refers to sdio_sdcard.o(i.SD_ReadMultiBlocks) for SD_ReadMultiBlocks
    sdio_sdcard.o(i.SD_ReadDisk) refers to sdio_sdcard.o(.data) for CardType
    sdio_sdcard.o(i.SD_ReadDisk) refers to sdio_sdcard.o(.bss) for SDIO_DATA_BUFFER
    sdio_sdcard.o(i.SD_ReadMultiBlocks) refers to sdio_sdcard.o(i.SDIO_Send_Data_Cfg) for SDIO_Send_Data_Cfg
    sdio_sdcard.o(i.SD_ReadMultiBlocks) refers to sdio_sdcard.o(i.convert_from_bytes_to_power_of_two) for convert_from_bytes_to_power_of_two
    sdio_sdcard.o(i.SD_ReadMultiBlocks) refers to sdio_sdcard.o(i.SDIO_Send_Cmd) for SDIO_Send_Cmd
    sdio_sdcard.o(i.SD_ReadMultiBlocks) refers to sdio_sdcard.o(i.CmdResp1Error) for CmdResp1Error
    sdio_sdcard.o(i.SD_ReadMultiBlocks) refers to sys.o(.emb_text) for INTX_DISABLE
    sdio_sdcard.o(i.SD_ReadMultiBlocks) refers to sdio_sdcard.o(i.SD_DMA_Config) for SD_DMA_Config
    sdio_sdcard.o(i.SD_ReadMultiBlocks) refers to sdio_sdcard.o(.data) for tempbuff
    sdio_sdcard.o(i.SD_SelectDeselect) refers to sdio_sdcard.o(i.SDIO_Send_Cmd) for SDIO_Send_Cmd
    sdio_sdcard.o(i.SD_SelectDeselect) refers to sdio_sdcard.o(i.CmdResp1Error) for CmdResp1Error
    sdio_sdcard.o(i.SD_SendStatus) refers to sdio_sdcard.o(i.SDIO_Send_Cmd) for SDIO_Send_Cmd
    sdio_sdcard.o(i.SD_SendStatus) refers to sdio_sdcard.o(i.CmdResp1Error) for CmdResp1Error
    sdio_sdcard.o(i.SD_SendStatus) refers to sdio_sdcard.o(.data) for RCA
    sdio_sdcard.o(i.SD_SetDeviceMode) refers to sdio_sdcard.o(.data) for DeviceMode
    sdio_sdcard.o(i.SD_WriteBlock) refers to sdio_sdcard.o(i.SDIO_Send_Data_Cfg) for SDIO_Send_Data_Cfg
    sdio_sdcard.o(i.SD_WriteBlock) refers to sdio_sdcard.o(i.convert_from_bytes_to_power_of_two) for convert_from_bytes_to_power_of_two
    sdio_sdcard.o(i.SD_WriteBlock) refers to sdio_sdcard.o(i.SDIO_Send_Cmd) for SDIO_Send_Cmd
    sdio_sdcard.o(i.SD_WriteBlock) refers to sdio_sdcard.o(i.CmdResp1Error) for CmdResp1Error
    sdio_sdcard.o(i.SD_WriteBlock) refers to sys.o(.emb_text) for INTX_DISABLE
    sdio_sdcard.o(i.SD_WriteBlock) refers to sdio_sdcard.o(i.SD_DMA_Config) for SD_DMA_Config
    sdio_sdcard.o(i.SD_WriteBlock) refers to sdio_sdcard.o(i.SD_Init) for SD_Init
    sdio_sdcard.o(i.SD_WriteBlock) refers to sdio_sdcard.o(i.IsCardProgramming) for IsCardProgramming
    sdio_sdcard.o(i.SD_WriteBlock) refers to sdio_sdcard.o(.data) for CardType
    sdio_sdcard.o(i.SD_WriteDisk) refers to rt_memcpy_v6.o(.text) for __aeabi_memcpy
    sdio_sdcard.o(i.SD_WriteDisk) refers to sdio_sdcard.o(i.SD_WriteBlock) for SD_WriteBlock
    sdio_sdcard.o(i.SD_WriteDisk) refers to sdio_sdcard.o(i.SD_WriteMultiBlocks) for SD_WriteMultiBlocks
    sdio_sdcard.o(i.SD_WriteDisk) refers to sdio_sdcard.o(.data) for CardType
    sdio_sdcard.o(i.SD_WriteDisk) refers to sdio_sdcard.o(.bss) for SDIO_DATA_BUFFER
    sdio_sdcard.o(i.SD_WriteMultiBlocks) refers to sdio_sdcard.o(i.SDIO_Send_Data_Cfg) for SDIO_Send_Data_Cfg
    sdio_sdcard.o(i.SD_WriteMultiBlocks) refers to sdio_sdcard.o(i.convert_from_bytes_to_power_of_two) for convert_from_bytes_to_power_of_two
    sdio_sdcard.o(i.SD_WriteMultiBlocks) refers to sdio_sdcard.o(i.SDIO_Send_Cmd) for SDIO_Send_Cmd
    sdio_sdcard.o(i.SD_WriteMultiBlocks) refers to sdio_sdcard.o(i.CmdResp1Error) for CmdResp1Error
    sdio_sdcard.o(i.SD_WriteMultiBlocks) refers to sys.o(.emb_text) for INTX_DISABLE
    sdio_sdcard.o(i.SD_WriteMultiBlocks) refers to sdio_sdcard.o(i.SD_DMA_Config) for SD_DMA_Config
    sdio_sdcard.o(i.SD_WriteMultiBlocks) refers to sdio_sdcard.o(i.SD_Init) for SD_Init
    sdio_sdcard.o(i.SD_WriteMultiBlocks) refers to sdio_sdcard.o(i.IsCardProgramming) for IsCardProgramming
    sdio_sdcard.o(i.SD_WriteMultiBlocks) refers to sdio_sdcard.o(.data) for CardType
    spi.o(i.SPI1_Init) refers to sys.o(i.GPIO_Set) for GPIO_Set
    spi.o(i.SPI1_Init) refers to sys.o(i.GPIO_AF_Set) for GPIO_AF_Set
    spi.o(i.SPI1_Init) refers to spi.o(i.SPI1_ReadWriteByte) for SPI1_ReadWriteByte
    w25qxx.o(i.W25QXX_Erase_Chip) refers to w25qxx.o(i.W25QXX_Write_Enable) for W25QXX_Write_Enable
    w25qxx.o(i.W25QXX_Erase_Chip) refers to w25qxx.o(i.W25QXX_Wait_Busy) for W25QXX_Wait_Busy
    w25qxx.o(i.W25QXX_Erase_Chip) refers to spi.o(i.SPI1_ReadWriteByte) for SPI1_ReadWriteByte
    w25qxx.o(i.W25QXX_Erase_Sector) refers to _printf_percent.o(.ARM.Collect$$_printf_percent$$00000000) for _printf_percent
    w25qxx.o(i.W25QXX_Erase_Sector) refers to _printf_x.o(.ARM.Collect$$_printf_percent$$0000000C) for _printf_x
    w25qxx.o(i.W25QXX_Erase_Sector) refers to _printf_hex_int.o(.text) for _printf_longlong_hex
    w25qxx.o(i.W25QXX_Erase_Sector) refers to noretval__2printf.o(.text) for __2printf
    w25qxx.o(i.W25QXX_Erase_Sector) refers to w25qxx.o(i.W25QXX_Write_Enable) for W25QXX_Write_Enable
    w25qxx.o(i.W25QXX_Erase_Sector) refers to w25qxx.o(i.W25QXX_Wait_Busy) for W25QXX_Wait_Busy
    w25qxx.o(i.W25QXX_Erase_Sector) refers to spi.o(i.SPI1_ReadWriteByte) for SPI1_ReadWriteByte
    w25qxx.o(i.W25QXX_Init) refers to sys.o(i.GPIO_Set) for GPIO_Set
    w25qxx.o(i.W25QXX_Init) refers to spi.o(i.SPI1_Init) for SPI1_Init
    w25qxx.o(i.W25QXX_Init) refers to spi.o(i.SPI1_SetSpeed) for SPI1_SetSpeed
    w25qxx.o(i.W25QXX_Init) refers to w25qxx.o(i.W25QXX_ReadID) for W25QXX_ReadID
    w25qxx.o(i.W25QXX_Init) refers to w25qxx.o(.data) for W25QXX_TYPE
    w25qxx.o(i.W25QXX_PowerDown) refers to spi.o(i.SPI1_ReadWriteByte) for SPI1_ReadWriteByte
    w25qxx.o(i.W25QXX_PowerDown) refers to delay.o(i.delay_us) for delay_us
    w25qxx.o(i.W25QXX_Read) refers to spi.o(i.SPI1_ReadWriteByte) for SPI1_ReadWriteByte
    w25qxx.o(i.W25QXX_ReadID) refers to spi.o(i.SPI1_ReadWriteByte) for SPI1_ReadWriteByte
    w25qxx.o(i.W25QXX_ReadSR) refers to spi.o(i.SPI1_ReadWriteByte) for SPI1_ReadWriteByte
    w25qxx.o(i.W25QXX_WAKEUP) refers to spi.o(i.SPI1_ReadWriteByte) for SPI1_ReadWriteByte
    w25qxx.o(i.W25QXX_WAKEUP) refers to delay.o(i.delay_us) for delay_us
    w25qxx.o(i.W25QXX_Wait_Busy) refers to w25qxx.o(i.W25QXX_ReadSR) for W25QXX_ReadSR
    w25qxx.o(i.W25QXX_Write) refers to w25qxx.o(i.W25QXX_Read) for W25QXX_Read
    w25qxx.o(i.W25QXX_Write) refers to w25qxx.o(i.W25QXX_Erase_Sector) for W25QXX_Erase_Sector
    w25qxx.o(i.W25QXX_Write) refers to w25qxx.o(i.W25QXX_Write_NoCheck) for W25QXX_Write_NoCheck
    w25qxx.o(i.W25QXX_Write) refers to w25qxx.o(.bss) for W25QXX_BUFFER
    w25qxx.o(i.W25QXX_Write_Disable) refers to spi.o(i.SPI1_ReadWriteByte) for SPI1_ReadWriteByte
    w25qxx.o(i.W25QXX_Write_Enable) refers to spi.o(i.SPI1_ReadWriteByte) for SPI1_ReadWriteByte
    w25qxx.o(i.W25QXX_Write_NoCheck) refers to w25qxx.o(i.W25QXX_Write_Page) for W25QXX_Write_Page
    w25qxx.o(i.W25QXX_Write_Page) refers to w25qxx.o(i.W25QXX_Write_Enable) for W25QXX_Write_Enable
    w25qxx.o(i.W25QXX_Write_Page) refers to spi.o(i.SPI1_ReadWriteByte) for SPI1_ReadWriteByte
    w25qxx.o(i.W25QXX_Write_Page) refers to w25qxx.o(i.W25QXX_Wait_Busy) for W25QXX_Wait_Busy
    w25qxx.o(i.W25QXX_Write_SR) refers to spi.o(i.SPI1_ReadWriteByte) for SPI1_ReadWriteByte
    malloc.o(i.my_mem_free) refers to malloc.o(.data) for mallco_dev
    malloc.o(i.my_mem_free) refers to malloc.o(.constdata) for memsize
    malloc.o(i.my_mem_init) refers to malloc.o(i.mymemset) for mymemset
    malloc.o(i.my_mem_init) refers to malloc.o(.constdata) for memtblsize
    malloc.o(i.my_mem_init) refers to malloc.o(.data) for mallco_dev
    malloc.o(i.my_mem_malloc) refers to malloc.o(.data) for mallco_dev
    malloc.o(i.my_mem_malloc) refers to malloc.o(.constdata) for memblksize
    malloc.o(i.my_mem_perused) refers to malloc.o(.data) for mallco_dev
    malloc.o(i.my_mem_perused) refers to malloc.o(.constdata) for memtblsize
    malloc.o(i.myfree) refers to malloc.o(i.my_mem_free) for my_mem_free
    malloc.o(i.myfree) refers to malloc.o(.data) for mallco_dev
    malloc.o(i.mymalloc) refers to malloc.o(i.my_mem_malloc) for my_mem_malloc
    malloc.o(i.mymalloc) refers to malloc.o(.data) for mallco_dev
    malloc.o(i.myrealloc) refers to malloc.o(i.my_mem_malloc) for my_mem_malloc
    malloc.o(i.myrealloc) refers to malloc.o(i.mymemcpy) for mymemcpy
    malloc.o(i.myrealloc) refers to malloc.o(i.myfree) for myfree
    malloc.o(i.myrealloc) refers to malloc.o(.data) for mallco_dev
    malloc.o(.data) refers to malloc.o(i.my_mem_init) for my_mem_init
    malloc.o(.data) refers to malloc.o(i.my_mem_perused) for my_mem_perused
    malloc.o(.data) refers to malloc.o(.bss) for mem1base
    malloc.o(.data) refers to malloc.o(.ARM.__AT_0x68000000) for mem2base
    malloc.o(.data) refers to malloc.o(.ARM.__AT_0x10000000) for mem3base
    malloc.o(.data) refers to malloc.o(.ARM.__AT_0x680F0000) for mem2mapbase
    malloc.o(.data) refers to malloc.o(.ARM.__AT_0x1000F000) for mem3mapbase
    ff.o(i.check_fs) refers to ff.o(i.move_window) for move_window
    ff.o(i.cmp_lfn) refers to mycc936.o(i.ff_wtoupper) for ff_wtoupper
    ff.o(i.cmp_lfn) refers to ff.o(.constdata) for LfnOfs
    ff.o(i.create_chain) refers to ff.o(i.get_fat) for get_fat
    ff.o(i.create_chain) refers to ff.o(i.put_fat) for put_fat
    ff.o(i.create_name) refers to mycc936.o(i.ff_convert) for ff_convert
    ff.o(i.create_name) refers to ff.o(i.chk_chr) for chk_chr
    ff.o(i.create_name) refers to ff.o(i.mem_set) for mem_set
    ff.o(i.create_name) refers to mycc936.o(i.ff_wtoupper) for ff_wtoupper
    ff.o(i.dir_alloc) refers to ff.o(i.dir_sdi) for dir_sdi
    ff.o(i.dir_alloc) refers to ff.o(i.move_window) for move_window
    ff.o(i.dir_alloc) refers to ff.o(i.dir_next) for dir_next
    ff.o(i.dir_find) refers to ff.o(i.dir_sdi) for dir_sdi
    ff.o(i.dir_find) refers to ff.o(i.move_window) for move_window
    ff.o(i.dir_find) refers to ff.o(i.cmp_lfn) for cmp_lfn
    ff.o(i.dir_find) refers to ff.o(i.sum_sfn) for sum_sfn
    ff.o(i.dir_find) refers to ff.o(i.mem_cmp) for mem_cmp
    ff.o(i.dir_find) refers to ff.o(i.dir_next) for dir_next
    ff.o(i.dir_next) refers to ff.o(i.get_fat) for get_fat
    ff.o(i.dir_next) refers to ff.o(i.create_chain) for create_chain
    ff.o(i.dir_next) refers to ff.o(i.sync_window) for sync_window
    ff.o(i.dir_next) refers to ff.o(i.mem_set) for mem_set
    ff.o(i.dir_next) refers to ff.o(i.clust2sect) for clust2sect
    ff.o(i.dir_read) refers to ff.o(i.move_window) for move_window
    ff.o(i.dir_read) refers to ff.o(i.pick_lfn) for pick_lfn
    ff.o(i.dir_read) refers to ff.o(i.sum_sfn) for sum_sfn
    ff.o(i.dir_read) refers to ff.o(i.dir_next) for dir_next
    ff.o(i.dir_register) refers to ff.o(i.mem_cpy) for mem_cpy
    ff.o(i.dir_register) refers to ff.o(i.gen_numname) for gen_numname
    ff.o(i.dir_register) refers to ff.o(i.dir_find) for dir_find
    ff.o(i.dir_register) refers to ff.o(i.dir_alloc) for dir_alloc
    ff.o(i.dir_register) refers to ff.o(i.dir_sdi) for dir_sdi
    ff.o(i.dir_register) refers to ff.o(i.sum_sfn) for sum_sfn
    ff.o(i.dir_register) refers to ff.o(i.move_window) for move_window
    ff.o(i.dir_register) refers to ff.o(i.fit_lfn) for fit_lfn
    ff.o(i.dir_register) refers to ff.o(i.dir_next) for dir_next
    ff.o(i.dir_register) refers to ff.o(i.mem_set) for mem_set
    ff.o(i.dir_remove) refers to ff.o(i.dir_sdi) for dir_sdi
    ff.o(i.dir_remove) refers to ff.o(i.move_window) for move_window
    ff.o(i.dir_remove) refers to ff.o(i.mem_set) for mem_set
    ff.o(i.dir_remove) refers to ff.o(i.dir_next) for dir_next
    ff.o(i.dir_sdi) refers to ff.o(i.get_fat) for get_fat
    ff.o(i.dir_sdi) refers to ff.o(i.clust2sect) for clust2sect
    ff.o(i.f_chmod) refers to ff.o(i.find_volume) for find_volume
    ff.o(i.f_chmod) refers to diskio.o(i.ff_memalloc) for ff_memalloc
    ff.o(i.f_chmod) refers to ff.o(i.follow_path) for follow_path
    ff.o(i.f_chmod) refers to diskio.o(i.ff_memfree) for ff_memfree
    ff.o(i.f_chmod) refers to ff.o(i.sync_fs) for sync_fs
    ff.o(i.f_close) refers to ff.o(i.f_sync) for f_sync
    ff.o(i.f_close) refers to ff.o(i.validate) for validate
    ff.o(i.f_closedir) refers to ff.o(i.validate) for validate
    ff.o(i.f_getfree) refers to ff.o(i.find_volume) for find_volume
    ff.o(i.f_getfree) refers to ff.o(i.get_fat) for get_fat
    ff.o(i.f_getfree) refers to ff.o(i.move_window) for move_window
    ff.o(i.f_getlabel) refers to ff.o(i.find_volume) for find_volume
    ff.o(i.f_getlabel) refers to ff.o(i.dir_sdi) for dir_sdi
    ff.o(i.f_getlabel) refers to ff.o(i.dir_read) for dir_read
    ff.o(i.f_getlabel) refers to ff.o(i.mem_cpy) for mem_cpy
    ff.o(i.f_getlabel) refers to ff.o(i.move_window) for move_window
    ff.o(i.f_gets) refers to ff.o(i.f_read) for f_read
    ff.o(i.f_lseek) refers to ff.o(i.validate) for validate
    ff.o(i.f_lseek) refers to ff.o(i.get_fat) for get_fat
    ff.o(i.f_lseek) refers to ff.o(i.clmt_clust) for clmt_clust
    ff.o(i.f_lseek) refers to ff.o(i.clust2sect) for clust2sect
    ff.o(i.f_lseek) refers to diskio.o(i.disk_write) for disk_write
    ff.o(i.f_lseek) refers to diskio.o(i.disk_read) for disk_read
    ff.o(i.f_lseek) refers to ff.o(i.create_chain) for create_chain
    ff.o(i.f_mkdir) refers to diskio.o(i.get_fattime) for get_fattime
    ff.o(i.f_mkdir) refers to ff.o(i.find_volume) for find_volume
    ff.o(i.f_mkdir) refers to diskio.o(i.ff_memalloc) for ff_memalloc
    ff.o(i.f_mkdir) refers to ff.o(i.follow_path) for follow_path
    ff.o(i.f_mkdir) refers to ff.o(i.create_chain) for create_chain
    ff.o(i.f_mkdir) refers to ff.o(i.sync_window) for sync_window
    ff.o(i.f_mkdir) refers to ff.o(i.clust2sect) for clust2sect
    ff.o(i.f_mkdir) refers to ff.o(i.mem_set) for mem_set
    ff.o(i.f_mkdir) refers to ff.o(i.st_clust) for st_clust
    ff.o(i.f_mkdir) refers to ff.o(i.mem_cpy) for mem_cpy
    ff.o(i.f_mkdir) refers to ff.o(i.dir_register) for dir_register
    ff.o(i.f_mkdir) refers to ff.o(i.remove_chain) for remove_chain
    ff.o(i.f_mkdir) refers to ff.o(i.sync_fs) for sync_fs
    ff.o(i.f_mkdir) refers to diskio.o(i.ff_memfree) for ff_memfree
    ff.o(i.f_mkfs) refers to ff.o(i.get_ldnumber) for get_ldnumber
    ff.o(i.f_mkfs) refers to diskio.o(i.disk_initialize) for disk_initialize
    ff.o(i.f_mkfs) refers to diskio.o(i.disk_ioctl) for disk_ioctl
    ff.o(i.f_mkfs) refers to ff.o(i.mem_set) for mem_set
    ff.o(i.f_mkfs) refers to diskio.o(i.disk_write) for disk_write
    ff.o(i.f_mkfs) refers to ff.o(i.mem_cpy) for mem_cpy
    ff.o(i.f_mkfs) refers to diskio.o(i.get_fattime) for get_fattime
    ff.o(i.f_mkfs) refers to ff.o(.bss) for FatFs
    ff.o(i.f_mkfs) refers to ff.o(.constdata) for vst
    ff.o(i.f_mount) refers to ff.o(i.get_ldnumber) for get_ldnumber
    ff.o(i.f_mount) refers to ff.o(i.find_volume) for find_volume
    ff.o(i.f_mount) refers to ff.o(.bss) for FatFs
    ff.o(i.f_open) refers to ff.o(i.find_volume) for find_volume
    ff.o(i.f_open) refers to diskio.o(i.ff_memalloc) for ff_memalloc
    ff.o(i.f_open) refers to ff.o(i.follow_path) for follow_path
    ff.o(i.f_open) refers to ff.o(i.dir_register) for dir_register
    ff.o(i.f_open) refers to diskio.o(i.get_fattime) for get_fattime
    ff.o(i.f_open) refers to ff.o(i.ld_clust) for ld_clust
    ff.o(i.f_open) refers to ff.o(i.st_clust) for st_clust
    ff.o(i.f_open) refers to ff.o(i.remove_chain) for remove_chain
    ff.o(i.f_open) refers to ff.o(i.move_window) for move_window
    ff.o(i.f_open) refers to diskio.o(i.ff_memfree) for ff_memfree
    ff.o(i.f_opendir) refers to ff.o(i.find_volume) for find_volume
    ff.o(i.f_opendir) refers to diskio.o(i.ff_memalloc) for ff_memalloc
    ff.o(i.f_opendir) refers to ff.o(i.follow_path) for follow_path
    ff.o(i.f_opendir) refers to diskio.o(i.ff_memfree) for ff_memfree
    ff.o(i.f_opendir) refers to ff.o(i.ld_clust) for ld_clust
    ff.o(i.f_opendir) refers to ff.o(i.dir_sdi) for dir_sdi
    ff.o(i.f_printf) refers to ff.o(i.putc_bfd) for putc_bfd
    ff.o(i.f_printf) refers to ff.o(i.f_write) for f_write
    ff.o(i.f_putc) refers to ff.o(i.putc_bfd) for putc_bfd
    ff.o(i.f_putc) refers to ff.o(i.f_write) for f_write
    ff.o(i.f_puts) refers to ff.o(i.putc_bfd) for putc_bfd
    ff.o(i.f_puts) refers to ff.o(i.f_write) for f_write
    ff.o(i.f_read) refers to ff.o(i.validate) for validate
    ff.o(i.f_read) refers to ff.o(i.clmt_clust) for clmt_clust
    ff.o(i.f_read) refers to ff.o(i.get_fat) for get_fat
    ff.o(i.f_read) refers to ff.o(i.clust2sect) for clust2sect
    ff.o(i.f_read) refers to diskio.o(i.disk_read) for disk_read
    ff.o(i.f_read) refers to ff.o(i.mem_cpy) for mem_cpy
    ff.o(i.f_read) refers to diskio.o(i.disk_write) for disk_write
    ff.o(i.f_readdir) refers to ff.o(i.validate) for validate
    ff.o(i.f_readdir) refers to ff.o(i.dir_sdi) for dir_sdi
    ff.o(i.f_readdir) refers to diskio.o(i.ff_memalloc) for ff_memalloc
    ff.o(i.f_readdir) refers to ff.o(i.dir_read) for dir_read
    ff.o(i.f_readdir) refers to ff.o(i.get_fileinfo) for get_fileinfo
    ff.o(i.f_readdir) refers to ff.o(i.dir_next) for dir_next
    ff.o(i.f_readdir) refers to diskio.o(i.ff_memfree) for ff_memfree
    ff.o(i.f_rename) refers to ff.o(i.find_volume) for find_volume
    ff.o(i.f_rename) refers to diskio.o(i.ff_memalloc) for ff_memalloc
    ff.o(i.f_rename) refers to ff.o(i.follow_path) for follow_path
    ff.o(i.f_rename) refers to ff.o(i.mem_cpy) for mem_cpy
    ff.o(i.f_rename) refers to ff.o(i.get_ldnumber) for get_ldnumber
    ff.o(i.f_rename) refers to ff.o(i.dir_register) for dir_register
    ff.o(i.f_rename) refers to ff.o(i.ld_clust) for ld_clust
    ff.o(i.f_rename) refers to ff.o(i.clust2sect) for clust2sect
    ff.o(i.f_rename) refers to ff.o(i.move_window) for move_window
    ff.o(i.f_rename) refers to ff.o(i.st_clust) for st_clust
    ff.o(i.f_rename) refers to ff.o(i.dir_remove) for dir_remove
    ff.o(i.f_rename) refers to ff.o(i.sync_fs) for sync_fs
    ff.o(i.f_rename) refers to diskio.o(i.ff_memfree) for ff_memfree
    ff.o(i.f_setlabel) refers to ff.o(i.find_volume) for find_volume
    ff.o(i.f_setlabel) refers to mycc936.o(i.ff_convert) for ff_convert
    ff.o(i.f_setlabel) refers to mycc936.o(i.ff_wtoupper) for ff_wtoupper
    ff.o(i.f_setlabel) refers to ff.o(i.chk_chr) for chk_chr
    ff.o(i.f_setlabel) refers to ff.o(i.dir_sdi) for dir_sdi
    ff.o(i.f_setlabel) refers to ff.o(i.dir_read) for dir_read
    ff.o(i.f_setlabel) refers to ff.o(i.mem_cpy) for mem_cpy
    ff.o(i.f_setlabel) refers to diskio.o(i.get_fattime) for get_fattime
    ff.o(i.f_setlabel) refers to ff.o(i.sync_fs) for sync_fs
    ff.o(i.f_setlabel) refers to ff.o(i.dir_alloc) for dir_alloc
    ff.o(i.f_setlabel) refers to ff.o(i.mem_set) for mem_set
    ff.o(i.f_stat) refers to ff.o(i.find_volume) for find_volume
    ff.o(i.f_stat) refers to diskio.o(i.ff_memalloc) for ff_memalloc
    ff.o(i.f_stat) refers to ff.o(i.follow_path) for follow_path
    ff.o(i.f_stat) refers to ff.o(i.get_fileinfo) for get_fileinfo
    ff.o(i.f_stat) refers to diskio.o(i.ff_memfree) for ff_memfree
    ff.o(i.f_sync) refers to ff.o(i.validate) for validate
    ff.o(i.f_sync) refers to diskio.o(i.disk_write) for disk_write
    ff.o(i.f_sync) refers to ff.o(i.move_window) for move_window
    ff.o(i.f_sync) refers to ff.o(i.st_clust) for st_clust
    ff.o(i.f_sync) refers to diskio.o(i.get_fattime) for get_fattime
    ff.o(i.f_sync) refers to ff.o(i.sync_fs) for sync_fs
    ff.o(i.f_truncate) refers to ff.o(i.validate) for validate
    ff.o(i.f_truncate) refers to ff.o(i.remove_chain) for remove_chain
    ff.o(i.f_truncate) refers to ff.o(i.get_fat) for get_fat
    ff.o(i.f_truncate) refers to ff.o(i.put_fat) for put_fat
    ff.o(i.f_truncate) refers to diskio.o(i.disk_write) for disk_write
    ff.o(i.f_unlink) refers to ff.o(i.find_volume) for find_volume
    ff.o(i.f_unlink) refers to diskio.o(i.ff_memalloc) for ff_memalloc
    ff.o(i.f_unlink) refers to ff.o(i.follow_path) for follow_path
    ff.o(i.f_unlink) refers to ff.o(i.ld_clust) for ld_clust
    ff.o(i.f_unlink) refers to ff.o(i.mem_cpy) for mem_cpy
    ff.o(i.f_unlink) refers to ff.o(i.dir_sdi) for dir_sdi
    ff.o(i.f_unlink) refers to ff.o(i.dir_read) for dir_read
    ff.o(i.f_unlink) refers to ff.o(i.dir_remove) for dir_remove
    ff.o(i.f_unlink) refers to ff.o(i.remove_chain) for remove_chain
    ff.o(i.f_unlink) refers to ff.o(i.sync_fs) for sync_fs
    ff.o(i.f_unlink) refers to diskio.o(i.ff_memfree) for ff_memfree
    ff.o(i.f_utime) refers to ff.o(i.find_volume) for find_volume
    ff.o(i.f_utime) refers to diskio.o(i.ff_memalloc) for ff_memalloc
    ff.o(i.f_utime) refers to ff.o(i.follow_path) for follow_path
    ff.o(i.f_utime) refers to diskio.o(i.ff_memfree) for ff_memfree
    ff.o(i.f_utime) refers to ff.o(i.sync_fs) for sync_fs
    ff.o(i.f_write) refers to ff.o(i.validate) for validate
    ff.o(i.f_write) refers to ff.o(i.create_chain) for create_chain
    ff.o(i.f_write) refers to ff.o(i.clmt_clust) for clmt_clust
    ff.o(i.f_write) refers to diskio.o(i.disk_write) for disk_write
    ff.o(i.f_write) refers to ff.o(i.clust2sect) for clust2sect
    ff.o(i.f_write) refers to ff.o(i.mem_cpy) for mem_cpy
    ff.o(i.f_write) refers to diskio.o(i.disk_read) for disk_read
    ff.o(i.find_volume) refers to ff.o(i.get_ldnumber) for get_ldnumber
    ff.o(i.find_volume) refers to diskio.o(i.disk_status) for disk_status
    ff.o(i.find_volume) refers to diskio.o(i.disk_initialize) for disk_initialize
    ff.o(i.find_volume) refers to ff.o(i.check_fs) for check_fs
    ff.o(i.find_volume) refers to ff.o(i.move_window) for move_window
    ff.o(i.find_volume) refers to ff.o(.bss) for FatFs
    ff.o(i.find_volume) refers to ff.o(.data) for Fsid
    ff.o(i.fit_lfn) refers to ff.o(.constdata) for LfnOfs
    ff.o(i.follow_path) refers to ff.o(i.dir_sdi) for dir_sdi
    ff.o(i.follow_path) refers to ff.o(i.create_name) for create_name
    ff.o(i.follow_path) refers to ff.o(i.dir_find) for dir_find
    ff.o(i.follow_path) refers to ff.o(i.ld_clust) for ld_clust
    ff.o(i.gen_numname) refers to ff.o(i.mem_cpy) for mem_cpy
    ff.o(i.get_fat) refers to ff.o(i.move_window) for move_window
    ff.o(i.get_fileinfo) refers to mycc936.o(i.ff_convert) for ff_convert
    ff.o(i.move_window) refers to ff.o(i.sync_window) for sync_window
    ff.o(i.move_window) refers to diskio.o(i.disk_read) for disk_read
    ff.o(i.pick_lfn) refers to ff.o(.constdata) for LfnOfs
    ff.o(i.put_fat) refers to ff.o(i.move_window) for move_window
    ff.o(i.putc_bfd) refers to ff.o(i.f_write) for f_write
    ff.o(i.remove_chain) refers to ff.o(i.get_fat) for get_fat
    ff.o(i.remove_chain) refers to ff.o(i.put_fat) for put_fat
    ff.o(i.sync_fs) refers to ff.o(i.sync_window) for sync_window
    ff.o(i.sync_fs) refers to ff.o(i.mem_set) for mem_set
    ff.o(i.sync_fs) refers to diskio.o(i.disk_write) for disk_write
    ff.o(i.sync_fs) refers to diskio.o(i.disk_ioctl) for disk_ioctl
    ff.o(i.sync_window) refers to diskio.o(i.disk_write) for disk_write
    ff.o(i.validate) refers to diskio.o(i.disk_status) for disk_status
    diskio.o(i.disk_initialize) refers to sdio_sdcard.o(i.SD_Init) for SD_Init
    diskio.o(i.disk_initialize) refers to w25qxx.o(i.W25QXX_Init) for W25QXX_Init
    diskio.o(i.disk_initialize) refers to usbh_usr.o(i.USBH_UDISK_Status) for USBH_UDISK_Status
    diskio.o(i.disk_initialize) refers to diskio.o(.data) for FLASH_SECTOR_COUNT
    diskio.o(i.disk_ioctl) refers to llsdiv.o(.text) for __aeabi_ldivmod
    diskio.o(i.disk_ioctl) refers to sdio_sdcard.o(.bss) for SDCardInfo
    diskio.o(i.disk_ioctl) refers to diskio.o(.data) for FLASH_SECTOR_COUNT
    diskio.o(i.disk_ioctl) refers to usbh_msc_scsi.o(.bss) for USBH_MSC_Param
    diskio.o(i.disk_read) refers to sdio_sdcard.o(i.SD_ReadDisk) for SD_ReadDisk
    diskio.o(i.disk_read) refers to sdio_sdcard.o(i.SD_Init) for SD_Init
    diskio.o(i.disk_read) refers to w25qxx.o(i.W25QXX_Read) for W25QXX_Read
    diskio.o(i.disk_read) refers to usbh_usr.o(i.USBH_UDISK_Read) for USBH_UDISK_Read
    diskio.o(i.disk_write) refers to sdio_sdcard.o(i.SD_WriteDisk) for SD_WriteDisk
    diskio.o(i.disk_write) refers to sdio_sdcard.o(i.SD_Init) for SD_Init
    diskio.o(i.disk_write) refers to w25qxx.o(i.W25QXX_Write) for W25QXX_Write
    diskio.o(i.disk_write) refers to usbh_usr.o(i.USBH_UDISK_Write) for USBH_UDISK_Write
    diskio.o(i.ff_memalloc) refers to malloc.o(i.mymalloc) for mymalloc
    diskio.o(i.ff_memfree) refers to malloc.o(i.myfree) for myfree
    exfuns.o(i.exf_getfree) refers to ff.o(i.f_getfree) for f_getfree
    exfuns.o(i.exfuns_init) refers to malloc.o(i.mymalloc) for mymalloc
    exfuns.o(i.exfuns_init) refers to exfuns.o(.bss) for fs
    exfuns.o(i.exfuns_init) refers to exfuns.o(.data) for file
    exfuns.o(i.f_typetell) refers to strcpy.o(.text) for strcpy
    exfuns.o(i.f_typetell) refers to exfuns.o(i.char_upper) for char_upper
    exfuns.o(i.f_typetell) refers to strcmpv7m.o(.text) for strcmp
    exfuns.o(i.f_typetell) refers to exfuns.o(.constdata) for FILE_TYPE_TBL
    exfuns.o(.constdata) refers to exfuns.o(.conststring) for .conststring
    fattester.o(i.mf_close) refers to ff.o(i.f_close) for f_close
    fattester.o(i.mf_close) refers to exfuns.o(.data) for file
    fattester.o(i.mf_closedir) refers to ff.o(i.f_closedir) for f_closedir
    fattester.o(i.mf_closedir) refers to exfuns.o(.bss) for dir
    fattester.o(i.mf_fmkfs) refers to ff.o(i.f_mkfs) for f_mkfs
    fattester.o(i.mf_getlabel) refers to _printf_percent.o(.ARM.Collect$$_printf_percent$$00000000) for _printf_percent
    fattester.o(i.mf_getlabel) refers to _printf_s.o(.ARM.Collect$$_printf_percent$$00000014) for _printf_s
    fattester.o(i.mf_getlabel) refers to _printf_str.o(.text) for _printf_str
    fattester.o(i.mf_getlabel) refers to _printf_x.o(.ARM.Collect$$_printf_percent$$0000000C) for _printf_x
    fattester.o(i.mf_getlabel) refers to _printf_hex_int.o(.text) for _printf_longlong_hex
    fattester.o(i.mf_getlabel) refers to ff.o(i.f_getlabel) for f_getlabel
    fattester.o(i.mf_getlabel) refers to noretval__2printf.o(.text) for __2printf
    fattester.o(i.mf_gets) refers to _printf_percent.o(.ARM.Collect$$_printf_percent$$00000000) for _printf_percent
    fattester.o(i.mf_gets) refers to _printf_s.o(.ARM.Collect$$_printf_percent$$00000014) for _printf_s
    fattester.o(i.mf_gets) refers to _printf_str.o(.text) for _printf_str
    fattester.o(i.mf_gets) refers to ff.o(i.f_gets) for f_gets
    fattester.o(i.mf_gets) refers to noretval__2printf.o(.text) for __2printf
    fattester.o(i.mf_gets) refers to exfuns.o(.data) for file
    fattester.o(i.mf_lseek) refers to ff.o(i.f_lseek) for f_lseek
    fattester.o(i.mf_lseek) refers to exfuns.o(.data) for file
    fattester.o(i.mf_mkdir) refers to ff.o(i.f_mkdir) for f_mkdir
    fattester.o(i.mf_mount) refers to ff.o(i.f_mount) for f_mount
    fattester.o(i.mf_mount) refers to exfuns.o(.bss) for fs
    fattester.o(i.mf_open) refers to ff.o(i.f_open) for f_open
    fattester.o(i.mf_open) refers to exfuns.o(.data) for file
    fattester.o(i.mf_opendir) refers to ff.o(i.f_opendir) for f_opendir
    fattester.o(i.mf_opendir) refers to exfuns.o(.bss) for dir
    fattester.o(i.mf_putc) refers to ff.o(i.f_putc) for f_putc
    fattester.o(i.mf_putc) refers to exfuns.o(.data) for file
    fattester.o(i.mf_puts) refers to ff.o(i.f_puts) for f_puts
    fattester.o(i.mf_puts) refers to exfuns.o(.data) for file
    fattester.o(i.mf_read) refers to _printf_percent.o(.ARM.Collect$$_printf_percent$$00000000) for _printf_percent
    fattester.o(i.mf_read) refers to _printf_d.o(.ARM.Collect$$_printf_percent$$00000009) for _printf_d
    fattester.o(i.mf_read) refers to _printf_dec.o(.text) for _printf_int_dec
    fattester.o(i.mf_read) refers to _printf_c.o(.ARM.Collect$$_printf_percent$$00000013) for _printf_c
    fattester.o(i.mf_read) refers to _printf_str.o(.text) for _printf_str
    fattester.o(i.mf_read) refers to noretval__2printf.o(.text) for __2printf
    fattester.o(i.mf_read) refers to ff.o(i.f_read) for f_read
    fattester.o(i.mf_read) refers to exfuns.o(.data) for br
    fattester.o(i.mf_readdir) refers to _printf_percent.o(.ARM.Collect$$_printf_percent$$00000000) for _printf_percent
    fattester.o(i.mf_readdir) refers to _printf_d.o(.ARM.Collect$$_printf_percent$$00000009) for _printf_d
    fattester.o(i.mf_readdir) refers to _printf_dec.o(.text) for _printf_int_dec
    fattester.o(i.mf_readdir) refers to _printf_s.o(.ARM.Collect$$_printf_percent$$00000014) for _printf_s
    fattester.o(i.mf_readdir) refers to _printf_str.o(.text) for _printf_str
    fattester.o(i.mf_readdir) refers to malloc.o(i.mymalloc) for mymalloc
    fattester.o(i.mf_readdir) refers to ff.o(i.f_readdir) for f_readdir
    fattester.o(i.mf_readdir) refers to malloc.o(i.myfree) for myfree
    fattester.o(i.mf_readdir) refers to noretval__2printf.o(.text) for __2printf
    fattester.o(i.mf_readdir) refers to exfuns.o(.bss) for fileinfo
    fattester.o(i.mf_rename) refers to ff.o(i.f_rename) for f_rename
    fattester.o(i.mf_scan_files) refers to _printf_percent.o(.ARM.Collect$$_printf_percent$$00000000) for _printf_percent
    fattester.o(i.mf_scan_files) refers to _printf_s.o(.ARM.Collect$$_printf_percent$$00000014) for _printf_s
    fattester.o(i.mf_scan_files) refers to _printf_str.o(.text) for _printf_str
    fattester.o(i.mf_scan_files) refers to malloc.o(i.mymalloc) for mymalloc
    fattester.o(i.mf_scan_files) refers to ff.o(i.f_opendir) for f_opendir
    fattester.o(i.mf_scan_files) refers to noretval__2printf.o(.text) for __2printf
    fattester.o(i.mf_scan_files) refers to ff.o(i.f_readdir) for f_readdir
    fattester.o(i.mf_scan_files) refers to malloc.o(i.myfree) for myfree
    fattester.o(i.mf_scan_files) refers to exfuns.o(.bss) for fileinfo
    fattester.o(i.mf_setlabel) refers to _printf_percent.o(.ARM.Collect$$_printf_percent$$00000000) for _printf_percent
    fattester.o(i.mf_setlabel) refers to _printf_s.o(.ARM.Collect$$_printf_percent$$00000014) for _printf_s
    fattester.o(i.mf_setlabel) refers to _printf_str.o(.text) for _printf_str
    fattester.o(i.mf_setlabel) refers to _printf_x.o(.ARM.Collect$$_printf_percent$$0000000C) for _printf_x
    fattester.o(i.mf_setlabel) refers to _printf_hex_int.o(.text) for _printf_longlong_hex
    fattester.o(i.mf_setlabel) refers to ff.o(i.f_setlabel) for f_setlabel
    fattester.o(i.mf_setlabel) refers to noretval__2printf.o(.text) for __2printf
    fattester.o(i.mf_showfree) refers to _printf_percent.o(.ARM.Collect$$_printf_percent$$00000000) for _printf_percent
    fattester.o(i.mf_showfree) refers to _printf_d.o(.ARM.Collect$$_printf_percent$$00000009) for _printf_d
    fattester.o(i.mf_showfree) refers to _printf_dec.o(.text) for _printf_int_dec
    fattester.o(i.mf_showfree) refers to ff.o(i.f_getfree) for f_getfree
    fattester.o(i.mf_showfree) refers to noretval__2printf.o(.text) for __2printf
    fattester.o(i.mf_size) refers to exfuns.o(.data) for file
    fattester.o(i.mf_tell) refers to exfuns.o(.data) for file
    fattester.o(i.mf_unlink) refers to ff.o(i.f_unlink) for f_unlink
    fattester.o(i.mf_write) refers to _printf_percent.o(.ARM.Collect$$_printf_percent$$00000000) for _printf_percent
    fattester.o(i.mf_write) refers to _printf_d.o(.ARM.Collect$$_printf_percent$$00000009) for _printf_d
    fattester.o(i.mf_write) refers to _printf_dec.o(.text) for _printf_int_dec
    fattester.o(i.mf_write) refers to noretval__2printf.o(.text) for __2printf
    fattester.o(i.mf_write) refers to ff.o(i.f_write) for f_write
    fattester.o(i.mf_write) refers to exfuns.o(.data) for bw
    mycc936.o(i.ff_convert) refers to w25qxx.o(i.W25QXX_Read) for W25QXX_Read
    mycc936.o(i.ff_convert) refers to fontupd.o(.bss) for ftinfo
    mycc936.o(i.ff_wtoupper) refers to mycc936.o(.constdata) for tbl_lower
    fontupd.o(i.font_init) refers to w25qxx.o(i.W25QXX_Init) for W25QXX_Init
    fontupd.o(i.font_init) refers to w25qxx.o(i.W25QXX_Read) for W25QXX_Read
    fontupd.o(i.font_init) refers to delay.o(i.delay_ms) for delay_ms
    fontupd.o(i.font_init) refers to fontupd.o(.bss) for ftinfo
    fontupd.o(i.fupd_prog) refers to ili93xx.o(i.LCD_ShowString) for LCD_ShowString
    fontupd.o(i.fupd_prog) refers to ili93xx.o(i.LCD_ShowNum) for LCD_ShowNum
    fontupd.o(i.updata_fontx) refers to malloc.o(i.mymalloc) for mymalloc
    fontupd.o(i.updata_fontx) refers to ff.o(i.f_open) for f_open
    fontupd.o(i.updata_fontx) refers to ff.o(i.f_read) for f_read
    fontupd.o(i.updata_fontx) refers to w25qxx.o(i.W25QXX_Write) for W25QXX_Write
    fontupd.o(i.updata_fontx) refers to fontupd.o(i.fupd_prog) for fupd_prog
    fontupd.o(i.updata_fontx) refers to ff.o(i.f_close) for f_close
    fontupd.o(i.updata_fontx) refers to malloc.o(i.myfree) for myfree
    fontupd.o(i.updata_fontx) refers to fontupd.o(.bss) for ftinfo
    fontupd.o(i.update_font) refers to malloc.o(i.mymalloc) for mymalloc
    fontupd.o(i.update_font) refers to malloc.o(i.myfree) for myfree
    fontupd.o(i.update_font) refers to strcpy.o(.text) for strcpy
    fontupd.o(i.update_font) refers to strcat.o(.text) for strcat
    fontupd.o(i.update_font) refers to ff.o(i.f_open) for f_open
    fontupd.o(i.update_font) refers to ili93xx.o(i.LCD_ShowString) for LCD_ShowString
    fontupd.o(i.update_font) refers to fontupd.o(i.fupd_prog) for fupd_prog
    fontupd.o(i.update_font) refers to w25qxx.o(i.W25QXX_Read) for W25QXX_Read
    fontupd.o(i.update_font) refers to w25qxx.o(i.W25QXX_Erase_Sector) for W25QXX_Erase_Sector
    fontupd.o(i.update_font) refers to fontupd.o(i.updata_fontx) for updata_fontx
    fontupd.o(i.update_font) refers to w25qxx.o(i.W25QXX_Write) for W25QXX_Write
    fontupd.o(i.update_font) refers to fontupd.o(.bss) for ftinfo
    fontupd.o(i.update_font) refers to fontupd.o(.constdata) for UNIGBK_PATH
    fontupd.o(.constdata) refers to fontupd.o(.conststring) for .conststring
    text.o(i.Get_HzMat) refers to w25qxx.o(i.W25QXX_Read) for W25QXX_Read
    text.o(i.Get_HzMat) refers to fontupd.o(.bss) for ftinfo
    text.o(i.Show_Font) refers to text.o(i.Get_HzMat) for Get_HzMat
    text.o(i.Show_Font) refers to ili93xx.o(i.LCD_Fast_DrawPoint) for LCD_Fast_DrawPoint
    text.o(i.Show_Font) refers to ili93xx.o(.data) for POINT_COLOR
    text.o(i.Show_Str) refers to ili93xx.o(i.LCD_ShowChar) for LCD_ShowChar
    text.o(i.Show_Str) refers to text.o(i.Show_Font) for Show_Font
    text.o(i.Show_Str_Mid) refers to strlen.o(.text) for strlen
    text.o(i.Show_Str_Mid) refers to text.o(i.Show_Str) for Show_Str
    text.o(i.Show_Str_Mid) refers to ili93xx.o(.bss) for lcddev
    piclib.o(i.ai_draw_init) refers to piclib.o(.bss) for picinfo
    piclib.o(i.ai_load_picfile) refers to exfuns.o(i.f_typetell) for f_typetell
    piclib.o(i.ai_load_picfile) refers to bmp.o(i.stdbmp_decode) for stdbmp_decode
    piclib.o(i.ai_load_picfile) refers to tjpgd.o(i.jpg_decode) for jpg_decode
    piclib.o(i.ai_load_picfile) refers to gif.o(i.gif_decode) for gif_decode
    piclib.o(i.ai_load_picfile) refers to piclib.o(.bss) for picinfo
    piclib.o(i.ai_load_picfile) refers to ili93xx.o(.bss) for lcddev
    piclib.o(i.is_element_ok) refers to piclib.o(.bss) for picinfo
    piclib.o(i.pic_memalloc) refers to malloc.o(i.mymalloc) for mymalloc
    piclib.o(i.pic_memfree) refers to malloc.o(i.myfree) for myfree
    piclib.o(i.piclib_draw_hline) refers to ili93xx.o(i.LCD_Fill) for LCD_Fill
    piclib.o(i.piclib_draw_hline) refers to ili93xx.o(.bss) for lcddev
    piclib.o(i.piclib_fill_color) refers to ili93xx.o(i.LCD_Color_Fill) for LCD_Color_Fill
    piclib.o(i.piclib_init) refers to ili93xx.o(i.LCD_ReadPoint) for LCD_ReadPoint
    piclib.o(i.piclib_init) refers to piclib.o(.bss) for pic_phy
    piclib.o(i.piclib_init) refers to ili93xx.o(i.LCD_Fast_DrawPoint) for LCD_Fast_DrawPoint
    piclib.o(i.piclib_init) refers to ili93xx.o(i.LCD_Fill) for LCD_Fill
    piclib.o(i.piclib_init) refers to piclib.o(i.piclib_draw_hline) for piclib_draw_hline
    piclib.o(i.piclib_init) refers to piclib.o(i.piclib_fill_color) for piclib_fill_color
    piclib.o(i.piclib_init) refers to ili93xx.o(.bss) for lcddev
    bmp.o(i.bmp_encode) refers to piclib.o(i.pic_memalloc) for pic_memalloc
    bmp.o(i.bmp_encode) refers to piclib.o(i.pic_memfree) for pic_memfree
    bmp.o(i.bmp_encode) refers to malloc.o(i.mymemset) for mymemset
    bmp.o(i.bmp_encode) refers to ff.o(i.f_open) for f_open
    bmp.o(i.bmp_encode) refers to ff.o(i.f_write) for f_write
    bmp.o(i.bmp_encode) refers to ili93xx.o(i.LCD_ReadPoint) for LCD_ReadPoint
    bmp.o(i.bmp_encode) refers to ff.o(i.f_close) for f_close
    bmp.o(i.bmp_encode) refers to ili93xx.o(.bss) for lcddev
    bmp.o(i.bmp_encode) refers to exfuns.o(.data) for bw
    bmp.o(i.minibmp_decode) refers to piclib.o(i.pic_memalloc) for pic_memalloc
    bmp.o(i.minibmp_decode) refers to piclib.o(i.pic_memfree) for pic_memfree
    bmp.o(i.minibmp_decode) refers to ff.o(i.f_open) for f_open
    bmp.o(i.minibmp_decode) refers to ff.o(i.f_read) for f_read
    bmp.o(i.minibmp_decode) refers to ff.o(i.f_lseek) for f_lseek
    bmp.o(i.minibmp_decode) refers to piclib.o(i.piclib_alpha_blend) for piclib_alpha_blend
    bmp.o(i.minibmp_decode) refers to ff.o(i.f_close) for f_close
    bmp.o(i.minibmp_decode) refers to piclib.o(.bss) for picinfo
    bmp.o(i.stdbmp_decode) refers to piclib.o(i.pic_memalloc) for pic_memalloc
    bmp.o(i.stdbmp_decode) refers to piclib.o(i.pic_memfree) for pic_memfree
    bmp.o(i.stdbmp_decode) refers to ff.o(i.f_open) for f_open
    bmp.o(i.stdbmp_decode) refers to ff.o(i.f_read) for f_read
    bmp.o(i.stdbmp_decode) refers to piclib.o(i.ai_draw_init) for ai_draw_init
    bmp.o(i.stdbmp_decode) refers to piclib.o(i.is_element_ok) for is_element_ok
    bmp.o(i.stdbmp_decode) refers to ff.o(i.f_close) for f_close
    bmp.o(i.stdbmp_decode) refers to piclib.o(.bss) for picinfo
    gif.o(i.gif_check_head) refers to ff.o(i.f_read) for f_read
    gif.o(i.gif_clear2bkcolor) refers to piclib.o(.bss) for pic_phy
    gif.o(i.gif_decode) refers to piclib.o(i.pic_memalloc) for pic_memalloc
    gif.o(i.gif_decode) refers to ff.o(i.f_open) for f_open
    gif.o(i.gif_decode) refers to gif.o(i.gif_check_head) for gif_check_head
    gif.o(i.gif_decode) refers to gif.o(i.gif_getinfo) for gif_getinfo
    gif.o(i.gif_decode) refers to gif.o(i.gif_drawimage) for gif_drawimage
    gif.o(i.gif_decode) refers to gif.o(i.gif_recovergctbl) for gif_recovergctbl
    gif.o(i.gif_decode) refers to delay.o(i.delay_ms) for delay_ms
    gif.o(i.gif_decode) refers to ff.o(i.f_close) for f_close
    gif.o(i.gif_decode) refers to piclib.o(i.pic_memfree) for pic_memfree
    gif.o(i.gif_decode) refers to gif.o(.data) for gifdecoding
    gif.o(i.gif_dispimage) refers to ff.o(i.f_read) for f_read
    gif.o(i.gif_dispimage) refers to gif.o(i.gif_initlzw) for gif_initlzw
    gif.o(i.gif_dispimage) refers to gif.o(i.gif_getnextbyte) for gif_getnextbyte
    gif.o(i.gif_dispimage) refers to piclib.o(.bss) for pic_phy
    gif.o(i.gif_dispimage) refers to gif.o(.constdata) for _aInterlaceOffset
    gif.o(i.gif_drawimage) refers to ff.o(i.f_read) for f_read
    gif.o(i.gif_drawimage) refers to gif.o(i.gif_savegctbl) for gif_savegctbl
    gif.o(i.gif_drawimage) refers to gif.o(i.gif_readcolortbl) for gif_readcolortbl
    gif.o(i.gif_drawimage) refers to gif.o(i.gif_clear2bkcolor) for gif_clear2bkcolor
    gif.o(i.gif_drawimage) refers to gif.o(i.gif_dispimage) for gif_dispimage
    gif.o(i.gif_drawimage) refers to ff.o(i.f_lseek) for f_lseek
    gif.o(i.gif_drawimage) refers to gif.o(i.gif_readextension) for gif_readextension
    gif.o(i.gif_getdatablock) refers to ff.o(i.f_read) for f_read
    gif.o(i.gif_getdatablock) refers to ff.o(i.f_lseek) for f_lseek
    gif.o(i.gif_getinfo) refers to ff.o(i.f_read) for f_read
    gif.o(i.gif_getinfo) refers to gif.o(i.gif_readcolortbl) for gif_readcolortbl
    gif.o(i.gif_getnextbyte) refers to malloc.o(i.mymemset) for mymemset
    gif.o(i.gif_getnextbyte) refers to gif.o(i.gif_getnextcode) for gif_getnextcode
    gif.o(i.gif_getnextcode) refers to gif.o(i.gif_getdatablock) for gif_getdatablock
    gif.o(i.gif_getnextcode) refers to gif.o(.constdata) for _aMaskTbl
    gif.o(i.gif_initlzw) refers to malloc.o(i.mymemset) for mymemset
    gif.o(i.gif_quit) refers to gif.o(.data) for gifdecoding
    gif.o(i.gif_readcolortbl) refers to ff.o(i.f_read) for f_read
    gif.o(i.gif_readcolortbl) refers to gif.o(i.gif_getrgb565) for gif_getrgb565
    gif.o(i.gif_readextension) refers to ff.o(i.f_read) for f_read
    gif.o(i.gif_readextension) refers to gif.o(i.gif_getdatablock) for gif_getdatablock
    tjpgd.o(i.block_idct) refers to tjpgd.o(.constdata) for Clip8
    tjpgd.o(i.create_huffman_tbl) refers to tjpgd.o(i.alloc_pool) for alloc_pool
    tjpgd.o(i.create_qt_tbl) refers to tjpgd.o(i.alloc_pool) for alloc_pool
    tjpgd.o(i.create_qt_tbl) refers to tjpgd.o(.constdata) for Zig
    tjpgd.o(i.jd_decomp) refers to tjpgd.o(i.restart) for restart
    tjpgd.o(i.jd_decomp) refers to tjpgd.o(i.mcu_load) for mcu_load
    tjpgd.o(i.jd_decomp) refers to tjpgd.o(i.mcu_output) for mcu_output
    tjpgd.o(i.jd_prepare) refers to tjpgd.o(i.alloc_pool) for alloc_pool
    tjpgd.o(i.jd_prepare) refers to tjpgd.o(i.create_huffman_tbl) for create_huffman_tbl
    tjpgd.o(i.jd_prepare) refers to tjpgd.o(i.create_qt_tbl) for create_qt_tbl
    tjpgd.o(i.jpeg_freeall) refers to piclib.o(i.pic_memfree) for pic_memfree
    tjpgd.o(i.jpeg_freeall) refers to tjpgd.o(.data) for f_jpeg
    tjpgd.o(i.jpeg_in_func) refers to ff.o(i.f_read) for f_read
    tjpgd.o(i.jpeg_in_func) refers to ff.o(i.f_lseek) for f_lseek
    tjpgd.o(i.jpeg_mallocall) refers to piclib.o(i.pic_memalloc) for pic_memalloc
    tjpgd.o(i.jpeg_mallocall) refers to tjpgd.o(.data) for f_jpeg
    tjpgd.o(i.jpeg_out_func_fill) refers to piclib.o(.bss) for picinfo
    tjpgd.o(i.jpeg_out_func_point) refers to piclib.o(i.is_element_ok) for is_element_ok
    tjpgd.o(i.jpeg_out_func_point) refers to piclib.o(.bss) for picinfo
    tjpgd.o(i.jpg_decode) refers to tjpgd.o(i.jpeg_mallocall) for jpeg_mallocall
    tjpgd.o(i.jpg_decode) refers to ff.o(i.f_open) for f_open
    tjpgd.o(i.jpg_decode) refers to tjpgd.o(i.jd_prepare) for jd_prepare
    tjpgd.o(i.jpg_decode) refers to piclib.o(i.ai_draw_init) for ai_draw_init
    tjpgd.o(i.jpg_decode) refers to tjpgd.o(i.jd_decomp) for jd_decomp
    tjpgd.o(i.jpg_decode) refers to ff.o(i.f_close) for f_close
    tjpgd.o(i.jpg_decode) refers to tjpgd.o(i.jpeg_freeall) for jpeg_freeall
    tjpgd.o(i.jpg_decode) refers to tjpgd.o(.data) for f_jpeg
    tjpgd.o(i.jpg_decode) refers to tjpgd.o(i.jpeg_in_func) for jpeg_in_func
    tjpgd.o(i.jpg_decode) refers to tjpgd.o(i.jpeg_out_func_point) for jpeg_out_func_point
    tjpgd.o(i.jpg_decode) refers to piclib.o(.bss) for picinfo
    tjpgd.o(i.jpg_decode) refers to tjpgd.o(i.jpeg_out_func_fill) for jpeg_out_func_fill
    tjpgd.o(i.mcu_load) refers to tjpgd.o(i.huffext) for huffext
    tjpgd.o(i.mcu_load) refers to tjpgd.o(i.bitext) for bitext
    tjpgd.o(i.mcu_load) refers to tjpgd.o(i.block_idct) for block_idct
    tjpgd.o(i.mcu_load) refers to tjpgd.o(.constdata) for Zig
    tjpgd.o(i.mcu_output) refers to tjpgd.o(.constdata) for Clip8
    usmart.o(i.TIM4_IRQHandler) refers to usmart_config.o(.data) for usmart_dev
    usmart.o(i.Timer4_Init) refers to sys.o(i.MY_NVIC_Init) for MY_NVIC_Init
    usmart.o(i.usmart_cmd_rec) refers to usmart_str.o(i.usmart_get_fname) for usmart_get_fname
    usmart.o(i.usmart_cmd_rec) refers to usmart_str.o(i.usmart_strcmp) for usmart_strcmp
    usmart.o(i.usmart_cmd_rec) refers to usmart_str.o(i.usmart_get_fparam) for usmart_get_fparam
    usmart.o(i.usmart_cmd_rec) refers to usmart_config.o(.data) for usmart_dev
    usmart.o(i.usmart_exe) refers to _printf_percent.o(.ARM.Collect$$_printf_percent$$00000000) for _printf_percent
    usmart.o(i.usmart_exe) refers to _printf_s.o(.ARM.Collect$$_printf_percent$$00000014) for _printf_s
    usmart.o(i.usmart_exe) refers to _printf_str.o(.text) for _printf_str
    usmart.o(i.usmart_exe) refers to _printf_c.o(.ARM.Collect$$_printf_percent$$00000013) for _printf_c
    usmart.o(i.usmart_exe) refers to _printf_d.o(.ARM.Collect$$_printf_percent$$00000009) for _printf_d
    usmart.o(i.usmart_exe) refers to _printf_dec.o(.text) for _printf_int_dec
    usmart.o(i.usmart_exe) refers to _printf_x.o(.ARM.Collect$$_printf_percent$$0000000C) for _printf_x
    usmart.o(i.usmart_exe) refers to _printf_hex_int.o(.text) for _printf_longlong_hex
    usmart.o(i.usmart_exe) refers to _printf_u.o(.ARM.Collect$$_printf_percent$$0000000A) for _printf_u
    usmart.o(i.usmart_exe) refers to _printf_pad.o(.text) for _printf_pre_padding
    usmart.o(i.usmart_exe) refers to usmart_str.o(i.usmart_get_fname) for usmart_get_fname
    usmart.o(i.usmart_exe) refers to noretval__2printf.o(.text) for __2printf
    usmart.o(i.usmart_exe) refers to usmart_str.o(i.usmart_get_parmpos) for usmart_get_parmpos
    usmart.o(i.usmart_exe) refers to usmart.o(i.usmart_reset_runtime) for usmart_reset_runtime
    usmart.o(i.usmart_exe) refers to usmart.o(i.usmart_get_runtime) for usmart_get_runtime
    usmart.o(i.usmart_exe) refers to usmart_config.o(.data) for usmart_dev
    usmart.o(i.usmart_get_runtime) refers to usmart_config.o(.data) for usmart_dev
    usmart.o(i.usmart_init) refers to usmart.o(i.Timer4_Init) for Timer4_Init
    usmart.o(i.usmart_init) refers to usmart_config.o(.data) for usmart_dev
    usmart.o(i.usmart_reset_runtime) refers to usmart_config.o(.data) for usmart_dev
    usmart.o(i.usmart_scan) refers to usmart.o(i.usmart_sys_cmd_exe) for usmart_sys_cmd_exe
    usmart.o(i.usmart_scan) refers to noretval__2printf.o(.text) for __2printf
    usmart.o(i.usmart_scan) refers to usart.o(.data) for USART_RX_STA
    usmart.o(i.usmart_scan) refers to usart.o(.bss) for USART_RX_BUF
    usmart.o(i.usmart_scan) refers to usmart_config.o(.data) for usmart_dev
    usmart.o(i.usmart_sys_cmd_exe) refers to _printf_percent.o(.ARM.Collect$$_printf_percent$$00000000) for _printf_percent
    usmart.o(i.usmart_sys_cmd_exe) refers to _printf_s.o(.ARM.Collect$$_printf_percent$$00000014) for _printf_s
    usmart.o(i.usmart_sys_cmd_exe) refers to _printf_str.o(.text) for _printf_str
    usmart.o(i.usmart_sys_cmd_exe) refers to _printf_pad.o(.text) for _printf_pre_padding
    usmart.o(i.usmart_sys_cmd_exe) refers to _printf_x.o(.ARM.Collect$$_printf_percent$$0000000C) for _printf_x
    usmart.o(i.usmart_sys_cmd_exe) refers to _printf_hex_int.o(.text) for _printf_longlong_hex
    usmart.o(i.usmart_sys_cmd_exe) refers to _printf_u.o(.ARM.Collect$$_printf_percent$$0000000A) for _printf_u
    usmart.o(i.usmart_sys_cmd_exe) refers to _printf_dec.o(.text) for _printf_int_dec
    usmart.o(i.usmart_sys_cmd_exe) refers to usmart_str.o(i.usmart_get_cmdname) for usmart_get_cmdname
    usmart.o(i.usmart_sys_cmd_exe) refers to usmart_str.o(i.usmart_strcmp) for usmart_strcmp
    usmart.o(i.usmart_sys_cmd_exe) refers to noretval__2printf.o(.text) for __2printf
    usmart.o(i.usmart_sys_cmd_exe) refers to usmart.o(.data) for sys_cmd_tab
    usmart.o(i.usmart_sys_cmd_exe) refers to usmart_config.o(.data) for usmart_dev
    usmart.o(i.usmart_sys_cmd_exe) refers to usmart_str.o(i.usmart_get_fname) for usmart_get_fname
    usmart.o(i.usmart_sys_cmd_exe) refers to usmart_str.o(i.usmart_get_aparm) for usmart_get_aparm
    usmart.o(i.usmart_sys_cmd_exe) refers to usmart_str.o(i.usmart_str2num) for usmart_str2num
    usmart.o(.data) refers to usmart.o(.conststring) for .conststring
    usmart_config.o(.data) refers to usmart.o(i.read_addr) for read_addr
    usmart_config.o(.data) refers to usmart_config.o(.conststring) for .conststring
    usmart_config.o(.data) refers to usmart.o(i.write_addr) for write_addr
    usmart_config.o(.data) refers to usbh_usr.o(i.md_send) for md_send
    usmart_config.o(.data) refers to fattester.o(i.mf_mount) for mf_mount
    usmart_config.o(.data) refers to fattester.o(i.mf_open) for mf_open
    usmart_config.o(.data) refers to fattester.o(i.mf_close) for mf_close
    usmart_config.o(.data) refers to fattester.o(i.mf_read) for mf_read
    usmart_config.o(.data) refers to fattester.o(i.mf_write) for mf_write
    usmart_config.o(.data) refers to fattester.o(i.mf_opendir) for mf_opendir
    usmart_config.o(.data) refers to fattester.o(i.mf_closedir) for mf_closedir
    usmart_config.o(.data) refers to fattester.o(i.mf_readdir) for mf_readdir
    usmart_config.o(.data) refers to fattester.o(i.mf_scan_files) for mf_scan_files
    usmart_config.o(.data) refers to fattester.o(i.mf_showfree) for mf_showfree
    usmart_config.o(.data) refers to fattester.o(i.mf_lseek) for mf_lseek
    usmart_config.o(.data) refers to fattester.o(i.mf_tell) for mf_tell
    usmart_config.o(.data) refers to fattester.o(i.mf_size) for mf_size
    usmart_config.o(.data) refers to fattester.o(i.mf_mkdir) for mf_mkdir
    usmart_config.o(.data) refers to fattester.o(i.mf_fmkfs) for mf_fmkfs
    usmart_config.o(.data) refers to fattester.o(i.mf_unlink) for mf_unlink
    usmart_config.o(.data) refers to fattester.o(i.mf_rename) for mf_rename
    usmart_config.o(.data) refers to fattester.o(i.mf_getlabel) for mf_getlabel
    usmart_config.o(.data) refers to fattester.o(i.mf_setlabel) for mf_setlabel
    usmart_config.o(.data) refers to fattester.o(i.mf_gets) for mf_gets
    usmart_config.o(.data) refers to fattester.o(i.mf_putc) for mf_putc
    usmart_config.o(.data) refers to fattester.o(i.mf_puts) for mf_puts
    usmart_config.o(.data) refers to piclib.o(i.ai_load_picfile) for ai_load_picfile
    usmart_config.o(.data) refers to bmp.o(i.minibmp_decode) for minibmp_decode
    usmart_config.o(.data) refers to usmart.o(i.usmart_init) for usmart_init
    usmart_config.o(.data) refers to usmart.o(i.usmart_cmd_rec) for usmart_cmd_rec
    usmart_config.o(.data) refers to usmart.o(i.usmart_exe) for usmart_exe
    usmart_config.o(.data) refers to usmart.o(i.usmart_scan) for usmart_scan
    usmart_str.o(i.usmart_get_fname) refers to usmart_str.o(i.usmart_strcmp) for usmart_strcmp
    usmart_str.o(i.usmart_get_fname) refers to usmart_str.o(i.usmart_search_nextc) for usmart_search_nextc
    usmart_str.o(i.usmart_get_fparam) refers to usmart_str.o(i.usmart_get_aparm) for usmart_get_aparm
    usmart_str.o(i.usmart_get_fparam) refers to usmart_str.o(i.usmart_str2num) for usmart_str2num
    usmart_str.o(i.usmart_get_fparam) refers to usmart_str.o(i.usmart_get_parmpos) for usmart_get_parmpos
    usmart_str.o(i.usmart_get_fparam) refers to usmart_str.o(i.usmart_strlen) for usmart_strlen
    usmart_str.o(i.usmart_get_fparam) refers to usmart_str.o(i.usmart_strcopy) for usmart_strcopy
    usmart_str.o(i.usmart_get_fparam) refers to usmart_config.o(.data) for usmart_dev
    usmart_str.o(i.usmart_get_parmpos) refers to usmart_config.o(.data) for usmart_dev
    usmart_str.o(i.usmart_str2num) refers to usmart_str.o(i.usmart_pow) for usmart_pow
    usb_core.o(i.USB_OTG_CoreInit) refers to usb_core.o(i.USB_OTG_CoreReset) for USB_OTG_CoreReset
    usb_core.o(i.USB_OTG_CoreInit) refers to usb_bsp.o(i.USB_OTG_BSP_mDelay) for USB_OTG_BSP_mDelay
    usb_core.o(i.USB_OTG_CoreInitHost) refers to usb_bsp.o(i.USB_OTG_BSP_ConfigVBUS) for USB_OTG_BSP_ConfigVBUS
    usb_core.o(i.USB_OTG_CoreInitHost) refers to usb_core.o(i.USB_OTG_InitFSLSPClkSel) for USB_OTG_InitFSLSPClkSel
    usb_core.o(i.USB_OTG_CoreInitHost) refers to usb_core.o(i.USB_OTG_ResetPort) for USB_OTG_ResetPort
    usb_core.o(i.USB_OTG_CoreInitHost) refers to usb_core.o(i.USB_OTG_FlushTxFifo) for USB_OTG_FlushTxFifo
    usb_core.o(i.USB_OTG_CoreInitHost) refers to usb_core.o(i.USB_OTG_FlushRxFifo) for USB_OTG_FlushRxFifo
    usb_core.o(i.USB_OTG_CoreInitHost) refers to usb_core.o(i.USB_OTG_DriveVbus) for USB_OTG_DriveVbus
    usb_core.o(i.USB_OTG_CoreInitHost) refers to usb_core.o(i.USB_OTG_EnableHostInt) for USB_OTG_EnableHostInt
    usb_core.o(i.USB_OTG_CoreReset) refers to usb_bsp.o(i.USB_OTG_BSP_uDelay) for USB_OTG_BSP_uDelay
    usb_core.o(i.USB_OTG_DriveVbus) refers to usb_bsp.o(i.USB_OTG_BSP_DriveVBUS) for USB_OTG_BSP_DriveVBUS
    usb_core.o(i.USB_OTG_DriveVbus) refers to usb_core.o(i.USB_OTG_ReadHPRT0) for USB_OTG_ReadHPRT0
    usb_core.o(i.USB_OTG_DriveVbus) refers to usb_bsp.o(i.USB_OTG_BSP_mDelay) for USB_OTG_BSP_mDelay
    usb_core.o(i.USB_OTG_EnableHostInt) refers to usb_core.o(i.USB_OTG_EnableCommonInt) for USB_OTG_EnableCommonInt
    usb_core.o(i.USB_OTG_FlushRxFifo) refers to usb_bsp.o(i.USB_OTG_BSP_uDelay) for USB_OTG_BSP_uDelay
    usb_core.o(i.USB_OTG_FlushTxFifo) refers to usb_bsp.o(i.USB_OTG_BSP_uDelay) for USB_OTG_BSP_uDelay
    usb_core.o(i.USB_OTG_HC_StartXfer) refers to usb_core.o(i.USB_OTG_IsEvenFrame) for USB_OTG_IsEvenFrame
    usb_core.o(i.USB_OTG_HC_StartXfer) refers to usb_core.o(i.USB_OTG_WritePacket) for USB_OTG_WritePacket
    usb_core.o(i.USB_OTG_IsDeviceMode) refers to usb_core.o(i.USB_OTG_GetMode) for USB_OTG_GetMode
    usb_core.o(i.USB_OTG_IsHostMode) refers to usb_core.o(i.USB_OTG_GetMode) for USB_OTG_GetMode
    usb_core.o(i.USB_OTG_ResetPort) refers to usb_core.o(i.USB_OTG_ReadHPRT0) for USB_OTG_ReadHPRT0
    usb_core.o(i.USB_OTG_ResetPort) refers to usb_bsp.o(i.USB_OTG_BSP_mDelay) for USB_OTG_BSP_mDelay
    usb_core.o(i.USB_OTG_SetCurrentMode) refers to usb_bsp.o(i.USB_OTG_BSP_mDelay) for USB_OTG_BSP_mDelay
    usb_core.o(i.USB_OTG_StopHost) refers to usb_core.o(i.USB_OTG_FlushRxFifo) for USB_OTG_FlushRxFifo
    usb_core.o(i.USB_OTG_StopHost) refers to usb_core.o(i.USB_OTG_FlushTxFifo) for USB_OTG_FlushTxFifo
    usb_hcd.o(i.HCD_HC_Init) refers to usb_core.o(i.USB_OTG_HC_Init) for USB_OTG_HC_Init
    usb_hcd.o(i.HCD_Init) refers to usb_core.o(i.USB_OTG_SelectCore) for USB_OTG_SelectCore
    usb_hcd.o(i.HCD_Init) refers to usb_core.o(i.USB_OTG_DisableGlobalInt) for USB_OTG_DisableGlobalInt
    usb_hcd.o(i.HCD_Init) refers to usb_core.o(i.USB_OTG_CoreInit) for USB_OTG_CoreInit
    usb_hcd.o(i.HCD_Init) refers to usb_core.o(i.USB_OTG_SetCurrentMode) for USB_OTG_SetCurrentMode
    usb_hcd.o(i.HCD_Init) refers to usb_core.o(i.USB_OTG_CoreInitHost) for USB_OTG_CoreInitHost
    usb_hcd.o(i.HCD_Init) refers to usb_core.o(i.USB_OTG_EnableGlobalInt) for USB_OTG_EnableGlobalInt
    usb_hcd.o(i.HCD_ResetPort) refers to usb_core.o(i.USB_OTG_ResetPort) for USB_OTG_ResetPort
    usb_hcd.o(i.HCD_SubmitRequest) refers to usb_core.o(i.USB_OTG_HC_StartXfer) for USB_OTG_HC_StartXfer
    usb_hcd_int.o(i.USBH_OTG_ISR_Handler) refers to usb_core.o(i.USB_OTG_IsHostMode) for USB_OTG_IsHostMode
    usb_hcd_int.o(i.USBH_OTG_ISR_Handler) refers to usb_core.o(i.USB_OTG_ReadCoreItr) for USB_OTG_ReadCoreItr
    usb_hcd_int.o(i.USBH_OTG_ISR_Handler) refers to usb_hcd_int.o(i.USB_OTG_USBH_handle_sof_ISR) for USB_OTG_USBH_handle_sof_ISR
    usb_hcd_int.o(i.USBH_OTG_ISR_Handler) refers to usb_hcd_int.o(i.USB_OTG_USBH_handle_rx_qlvl_ISR) for USB_OTG_USBH_handle_rx_qlvl_ISR
    usb_hcd_int.o(i.USBH_OTG_ISR_Handler) refers to usb_hcd_int.o(i.USB_OTG_USBH_handle_nptxfempty_ISR) for USB_OTG_USBH_handle_nptxfempty_ISR
    usb_hcd_int.o(i.USBH_OTG_ISR_Handler) refers to usb_hcd_int.o(i.USB_OTG_USBH_handle_ptxfempty_ISR) for USB_OTG_USBH_handle_ptxfempty_ISR
    usb_hcd_int.o(i.USBH_OTG_ISR_Handler) refers to usb_hcd_int.o(i.USB_OTG_USBH_handle_hc_ISR) for USB_OTG_USBH_handle_hc_ISR
    usb_hcd_int.o(i.USBH_OTG_ISR_Handler) refers to usb_hcd_int.o(i.USB_OTG_USBH_handle_port_ISR) for USB_OTG_USBH_handle_port_ISR
    usb_hcd_int.o(i.USBH_OTG_ISR_Handler) refers to usb_hcd_int.o(i.USB_OTG_USBH_handle_Disconnect_ISR) for USB_OTG_USBH_handle_Disconnect_ISR
    usb_hcd_int.o(i.USBH_OTG_ISR_Handler) refers to usb_hcd_int.o(i.USB_OTG_USBH_handle_IncompletePeriodicXfer_ISR) for USB_OTG_USBH_handle_IncompletePeriodicXfer_ISR
    usb_hcd_int.o(i.USB_OTG_USBH_handle_Disconnect_ISR) refers to usbh_core.o(.data) for USBH_HCD_INT_fops
    usb_hcd_int.o(i.USB_OTG_USBH_handle_hc_ISR) refers to usb_core.o(i.USB_OTG_ReadHostAllChannels_intr) for USB_OTG_ReadHostAllChannels_intr
    usb_hcd_int.o(i.USB_OTG_USBH_handle_hc_ISR) refers to usb_hcd_int.o(i.USB_OTG_USBH_handle_hc_n_In_ISR) for USB_OTG_USBH_handle_hc_n_In_ISR
    usb_hcd_int.o(i.USB_OTG_USBH_handle_hc_ISR) refers to usb_hcd_int.o(i.USB_OTG_USBH_handle_hc_n_Out_ISR) for USB_OTG_USBH_handle_hc_n_Out_ISR
    usb_hcd_int.o(i.USB_OTG_USBH_handle_hc_n_In_ISR) refers to usb_core.o(i.USB_OTG_HC_Halt) for USB_OTG_HC_Halt
    usb_hcd_int.o(i.USB_OTG_USBH_handle_hc_n_Out_ISR) refers to _printf_percent.o(.ARM.Collect$$_printf_percent$$00000000) for _printf_percent
    usb_hcd_int.o(i.USB_OTG_USBH_handle_hc_n_Out_ISR) refers to _printf_d.o(.ARM.Collect$$_printf_percent$$00000009) for _printf_d
    usb_hcd_int.o(i.USB_OTG_USBH_handle_hc_n_Out_ISR) refers to _printf_dec.o(.text) for _printf_int_dec
    usb_hcd_int.o(i.USB_OTG_USBH_handle_hc_n_Out_ISR) refers to noretval__2printf.o(.text) for __2printf
    usb_hcd_int.o(i.USB_OTG_USBH_handle_hc_n_Out_ISR) refers to usb_core.o(i.USB_OTG_HC_Halt) for USB_OTG_HC_Halt
    usb_hcd_int.o(i.USB_OTG_USBH_handle_hc_n_Out_ISR) refers to usb_core.o(i.USB_OTG_HC_DoPing) for USB_OTG_HC_DoPing
    usb_hcd_int.o(i.USB_OTG_USBH_handle_nptxfempty_ISR) refers to usb_core.o(i.USB_OTG_WritePacket) for USB_OTG_WritePacket
    usb_hcd_int.o(i.USB_OTG_USBH_handle_port_ISR) refers to usb_core.o(i.USB_OTG_InitFSLSPClkSel) for USB_OTG_InitFSLSPClkSel
    usb_hcd_int.o(i.USB_OTG_USBH_handle_port_ISR) refers to usb_core.o(i.USB_OTG_ResetPort) for USB_OTG_ResetPort
    usb_hcd_int.o(i.USB_OTG_USBH_handle_port_ISR) refers to usbh_core.o(.data) for USBH_HCD_INT_fops
    usb_hcd_int.o(i.USB_OTG_USBH_handle_ptxfempty_ISR) refers to usb_core.o(i.USB_OTG_WritePacket) for USB_OTG_WritePacket
    usb_hcd_int.o(i.USB_OTG_USBH_handle_rx_qlvl_ISR) refers to usb_core.o(i.USB_OTG_ReadPacket) for USB_OTG_ReadPacket
    usb_hcd_int.o(i.USB_OTG_USBH_handle_sof_ISR) refers to usbh_core.o(.data) for USBH_HCD_INT_fops
    usbh_core.o(i.USBH_DeInit) refers to usbh_hcs.o(i.USBH_Free_Channel) for USBH_Free_Channel
    usbh_core.o(i.USBH_HandleControl) refers to usbh_ioreq.o(i.USBH_CtlSendSetup) for USBH_CtlSendSetup
    usbh_core.o(i.USBH_HandleControl) refers to usb_hcd.o(i.HCD_GetURB_State) for HCD_GetURB_State
    usbh_core.o(i.USBH_HandleControl) refers to usb_hcd.o(i.HCD_GetCurrentFrame) for HCD_GetCurrentFrame
    usbh_core.o(i.USBH_HandleControl) refers to usbh_ioreq.o(i.USBH_CtlReceiveData) for USBH_CtlReceiveData
    usbh_core.o(i.USBH_HandleControl) refers to usbh_ioreq.o(i.USBH_CtlSendData) for USBH_CtlSendData
    usbh_core.o(i.USBH_HandleControl) refers to usbh_core.o(.data) for timeout
    usbh_core.o(i.USBH_HandleEnum) refers to usbh_stdreq.o(i.USBH_Get_DevDesc) for USBH_Get_DevDesc
    usbh_core.o(i.USBH_HandleEnum) refers to usb_hcd.o(i.HCD_ResetPort) for HCD_ResetPort
    usbh_core.o(i.USBH_HandleEnum) refers to usbh_hcs.o(i.USBH_Modify_Channel) for USBH_Modify_Channel
    usbh_core.o(i.USBH_HandleEnum) refers to usbh_stdreq.o(i.USBH_SetAddress) for USBH_SetAddress
    usbh_core.o(i.USBH_HandleEnum) refers to usb_bsp.o(i.USB_OTG_BSP_mDelay) for USB_OTG_BSP_mDelay
    usbh_core.o(i.USBH_HandleEnum) refers to usbh_stdreq.o(i.USBH_Get_CfgDesc) for USBH_Get_CfgDesc
    usbh_core.o(i.USBH_HandleEnum) refers to usbh_stdreq.o(i.USBH_Get_StringDesc) for USBH_Get_StringDesc
    usbh_core.o(i.USBH_HandleEnum) refers to usbh_stdreq.o(i.USBH_SetCfg) for USBH_SetCfg
    usbh_core.o(i.USBH_Init) refers to usb_bsp.o(i.USB_OTG_BSP_Init) for USB_OTG_BSP_Init
    usbh_core.o(i.USBH_Init) refers to usb_bsp.o(i.USB_OTG_BSP_ConfigVBUS) for USB_OTG_BSP_ConfigVBUS
    usbh_core.o(i.USBH_Init) refers to usbh_core.o(i.USBH_DeInit) for USBH_DeInit
    usbh_core.o(i.USBH_Init) refers to usb_hcd.o(i.HCD_Init) for HCD_Init
    usbh_core.o(i.USBH_Init) refers to usb_bsp.o(i.USB_OTG_BSP_EnableInterrupt) for USB_OTG_BSP_EnableInterrupt
    usbh_core.o(i.USBH_Process) refers to usb_hcd.o(i.HCD_IsDeviceConnected) for HCD_IsDeviceConnected
    usbh_core.o(i.USBH_Process) refers to usb_bsp.o(i.USB_OTG_BSP_mDelay) for USB_OTG_BSP_mDelay
    usbh_core.o(i.USBH_Process) refers to usbh_hcs.o(i.USBH_Alloc_Channel) for USBH_Alloc_Channel
    usbh_core.o(i.USBH_Process) refers to usb_hcd.o(i.HCD_ResetPort) for HCD_ResetPort
    usbh_core.o(i.USBH_Process) refers to usb_hcd.o(i.HCD_GetCurrentSpeed) for HCD_GetCurrentSpeed
    usbh_core.o(i.USBH_Process) refers to usbh_hcs.o(i.USBH_Open_Channel) for USBH_Open_Channel
    usbh_core.o(i.USBH_Process) refers to usbh_core.o(i.USBH_HandleEnum) for USBH_HandleEnum
    usbh_core.o(i.USBH_Process) refers to usbh_core.o(i.USBH_ErrorHandle) for USBH_ErrorHandle
    usbh_core.o(i.USBH_Process) refers to usbh_core.o(i.USBH_HandleControl) for USBH_HandleControl
    usbh_core.o(i.USBH_Process) refers to usbh_core.o(i.USBH_DeInit) for USBH_DeInit
    usbh_core.o(i.USBH_Process) refers to usbh_hcs.o(i.USBH_DeAllocate_AllChannel) for USBH_DeAllocate_AllChannel
    usbh_core.o(.data) refers to usbh_core.o(i.USBH_SOF) for USBH_SOF
    usbh_core.o(.data) refers to usbh_core.o(i.USBH_Connected) for USBH_Connected
    usbh_core.o(.data) refers to usbh_core.o(i.USBH_Disconnected) for USBH_Disconnected
    usbh_hcs.o(i.USBH_Alloc_Channel) refers to usbh_hcs.o(i.USBH_GetFreeChannel) for USBH_GetFreeChannel
    usbh_hcs.o(i.USBH_Modify_Channel) refers to usb_core.o(i.USB_OTG_HC_Init) for USB_OTG_HC_Init
    usbh_hcs.o(i.USBH_Open_Channel) refers to usb_core.o(i.USB_OTG_HC_Init) for USB_OTG_HC_Init
    usbh_ioreq.o(i.USBH_BulkReceiveData) refers to usb_hcd.o(i.HCD_SubmitRequest) for HCD_SubmitRequest
    usbh_ioreq.o(i.USBH_BulkSendData) refers to usb_hcd.o(i.HCD_SubmitRequest) for HCD_SubmitRequest
    usbh_ioreq.o(i.USBH_CtlReceiveData) refers to usb_hcd.o(i.HCD_SubmitRequest) for HCD_SubmitRequest
    usbh_ioreq.o(i.USBH_CtlReq) refers to usbh_ioreq.o(i.USBH_SubmitSetupRequest) for USBH_SubmitSetupRequest
    usbh_ioreq.o(i.USBH_CtlSendData) refers to usb_hcd.o(i.HCD_SubmitRequest) for HCD_SubmitRequest
    usbh_ioreq.o(i.USBH_CtlSendSetup) refers to usb_hcd.o(i.HCD_SubmitRequest) for HCD_SubmitRequest
    usbh_ioreq.o(i.USBH_InterruptReceiveData) refers to usb_hcd.o(i.HCD_SubmitRequest) for HCD_SubmitRequest
    usbh_ioreq.o(i.USBH_InterruptSendData) refers to usb_hcd.o(i.HCD_SubmitRequest) for HCD_SubmitRequest
    usbh_ioreq.o(i.USBH_IsocReceiveData) refers to usb_hcd.o(i.HCD_SubmitRequest) for HCD_SubmitRequest
    usbh_ioreq.o(i.USBH_IsocSendData) refers to usb_hcd.o(i.HCD_SubmitRequest) for HCD_SubmitRequest
    usbh_stdreq.o(i.USBH_ClrFeature) refers to usbh_ioreq.o(i.USBH_CtlReq) for USBH_CtlReq
    usbh_stdreq.o(i.USBH_GetDescriptor) refers to usbh_ioreq.o(i.USBH_CtlReq) for USBH_CtlReq
    usbh_stdreq.o(i.USBH_Get_CfgDesc) refers to usbh_stdreq.o(i.USBH_GetDescriptor) for USBH_GetDescriptor
    usbh_stdreq.o(i.USBH_Get_CfgDesc) refers to usbh_stdreq.o(i.USBH_ParseCfgDesc) for USBH_ParseCfgDesc
    usbh_stdreq.o(i.USBH_Get_CfgDesc) refers to usbh_stdreq.o(.bss) for USBH_CfgDesc
    usbh_stdreq.o(i.USBH_Get_DevDesc) refers to usbh_stdreq.o(i.USBH_GetDescriptor) for USBH_GetDescriptor
    usbh_stdreq.o(i.USBH_Get_DevDesc) refers to usbh_stdreq.o(i.USBH_ParseDevDesc) for USBH_ParseDevDesc
    usbh_stdreq.o(i.USBH_Get_StringDesc) refers to usbh_stdreq.o(i.USBH_GetDescriptor) for USBH_GetDescriptor
    usbh_stdreq.o(i.USBH_Get_StringDesc) refers to usbh_stdreq.o(i.USBH_ParseStringDesc) for USBH_ParseStringDesc
    usbh_stdreq.o(i.USBH_ParseCfgDesc) refers to usbh_stdreq.o(i.USBH_GetNextDesc) for USBH_GetNextDesc
    usbh_stdreq.o(i.USBH_ParseCfgDesc) refers to usbh_stdreq.o(i.USBH_ParseInterfaceDesc) for USBH_ParseInterfaceDesc
    usbh_stdreq.o(i.USBH_ParseCfgDesc) refers to usbh_stdreq.o(i.USBH_ParseEPDesc) for USBH_ParseEPDesc
    usbh_stdreq.o(i.USBH_ParseCfgDesc) refers to usbh_stdreq.o(.data) for prev_itf
    usbh_stdreq.o(i.USBH_SetAddress) refers to usbh_ioreq.o(i.USBH_CtlReq) for USBH_CtlReq
    usbh_stdreq.o(i.USBH_SetCfg) refers to usbh_ioreq.o(i.USBH_CtlReq) for USBH_CtlReq
    usbh_stdreq.o(i.USBH_SetInterface) refers to usbh_ioreq.o(i.USBH_CtlReq) for USBH_CtlReq
    usbh_msc_bot.o(i.USBH_MSC_BOT_Abort) refers to usbh_stdreq.o(i.USBH_ClrFeature) for USBH_ClrFeature
    usbh_msc_bot.o(i.USBH_MSC_BOT_Abort) refers to usbh_msc_core.o(.bss) for MSC_Machine
    usbh_msc_bot.o(i.USBH_MSC_BOT_Abort) refers to usbh_msc_bot.o(.data) for BOTStallErrorCount
    usbh_msc_bot.o(i.USBH_MSC_DecodeCSW) refers to usb_hcd.o(i.HCD_IsDeviceConnected) for HCD_IsDeviceConnected
    usbh_msc_bot.o(i.USBH_MSC_DecodeCSW) refers to usb_hcd.o(i.HCD_GetXferCnt) for HCD_GetXferCnt
    usbh_msc_bot.o(i.USBH_MSC_DecodeCSW) refers to usbh_msc_core.o(.bss) for MSC_Machine
    usbh_msc_bot.o(i.USBH_MSC_DecodeCSW) refers to usbh_msc_bot.o(.bss) for USBH_MSC_CSWData
    usbh_msc_bot.o(i.USBH_MSC_HandleBOTXfer) refers to usb_hcd.o(i.HCD_IsDeviceConnected) for HCD_IsDeviceConnected
    usbh_msc_bot.o(i.USBH_MSC_HandleBOTXfer) refers to usbh_ioreq.o(i.USBH_BulkSendData) for USBH_BulkSendData
    usbh_msc_bot.o(i.USBH_MSC_HandleBOTXfer) refers to usb_hcd.o(i.HCD_GetURB_State) for HCD_GetURB_State
    usbh_msc_bot.o(i.USBH_MSC_HandleBOTXfer) refers to usbh_ioreq.o(i.USBH_BulkReceiveData) for USBH_BulkReceiveData
    usbh_msc_bot.o(i.USBH_MSC_HandleBOTXfer) refers to usbh_msc_bot.o(i.USBH_MSC_DecodeCSW) for USBH_MSC_DecodeCSW
    usbh_msc_bot.o(i.USBH_MSC_HandleBOTXfer) refers to usbh_msc_bot.o(i.USBH_MSC_BOT_Abort) for USBH_MSC_BOT_Abort
    usbh_msc_bot.o(i.USBH_MSC_HandleBOTXfer) refers to usbh_msc_bot.o(.bss) for USBH_MSC_BOTXferParam
    usbh_msc_bot.o(i.USBH_MSC_HandleBOTXfer) refers to usbh_msc_core.o(.bss) for MSC_Machine
    usbh_msc_bot.o(i.USBH_MSC_HandleBOTXfer) refers to usbh_msc_bot.o(.data) for BOTStallErrorCount
    usbh_msc_bot.o(i.USBH_MSC_Init) refers to usb_hcd.o(i.HCD_IsDeviceConnected) for HCD_IsDeviceConnected
    usbh_msc_bot.o(i.USBH_MSC_Init) refers to usbh_msc_bot.o(.bss) for USBH_MSC_CBWData
    usbh_msc_bot.o(i.USBH_MSC_Init) refers to usbh_msc_bot.o(.data) for BOTStallErrorCount
    usbh_msc_bot.o(i.USBH_MSC_Init) refers to usbh_msc_core.o(.data) for MSCErrorCount
    usbh_msc_core.o(i.USBH_MSC_BOTReset) refers to usbh_ioreq.o(i.USBH_CtlReq) for USBH_CtlReq
    usbh_msc_core.o(i.USBH_MSC_ClassRequest) refers to usbh_msc_bot.o(.bss) for USBH_MSC_BOTXferParam
    usbh_msc_core.o(i.USBH_MSC_ErrorHandle) refers to usbh_msc_core.o(.data) for MSCErrorCount
    usbh_msc_core.o(i.USBH_MSC_ErrorHandle) refers to usbh_msc_bot.o(.bss) for USBH_MSC_BOTXferParam
    usbh_msc_core.o(i.USBH_MSC_GETMaxLUN) refers to usbh_ioreq.o(i.USBH_CtlReq) for USBH_CtlReq
    usbh_msc_core.o(i.USBH_MSC_GETMaxLUN) refers to usbh_msc_core.o(.bss) for MSC_Machine
    usbh_msc_core.o(i.USBH_MSC_Handle) refers to usb_hcd.o(i.HCD_IsDeviceConnected) for HCD_IsDeviceConnected
    usbh_msc_core.o(i.USBH_MSC_Handle) refers to usbh_msc_bot.o(i.USBH_MSC_Init) for USBH_MSC_Init
    usbh_msc_core.o(i.USBH_MSC_Handle) refers to noretval__2printf.o(.text) for __2printf
    usbh_msc_core.o(i.USBH_MSC_Handle) refers to usbh_msc_core.o(i.USBH_MSC_BOTReset) for USBH_MSC_BOTReset
    usbh_msc_core.o(i.USBH_MSC_Handle) refers to usbh_msc_core.o(i.USBH_MSC_GETMaxLUN) for USBH_MSC_GETMaxLUN
    usbh_msc_core.o(i.USBH_MSC_Handle) refers to usbh_stdreq.o(i.USBH_Get_CfgDesc) for USBH_Get_CfgDesc
    usbh_msc_core.o(i.USBH_MSC_Handle) refers to usbh_stdreq.o(i.USBH_ClrFeature) for USBH_ClrFeature
    usbh_msc_core.o(i.USBH_MSC_Handle) refers to usbh_msc_scsi.o(i.USBH_MSC_TestUnitReady) for USBH_MSC_TestUnitReady
    usbh_msc_core.o(i.USBH_MSC_Handle) refers to usbh_msc_core.o(i.USBH_MSC_ErrorHandle) for USBH_MSC_ErrorHandle
    usbh_msc_core.o(i.USBH_MSC_Handle) refers to usbh_msc_scsi.o(i.USBH_MSC_ReadCapacity10) for USBH_MSC_ReadCapacity10
    usbh_msc_core.o(i.USBH_MSC_Handle) refers to usbh_msc_scsi.o(i.USBH_MSC_ModeSense6) for USBH_MSC_ModeSense6
    usbh_msc_core.o(i.USBH_MSC_Handle) refers to usbh_msc_scsi.o(i.USBH_MSC_RequestSense) for USBH_MSC_RequestSense
    usbh_msc_core.o(i.USBH_MSC_Handle) refers to usbh_msc_bot.o(i.USBH_MSC_HandleBOTXfer) for USBH_MSC_HandleBOTXfer
    usbh_msc_core.o(i.USBH_MSC_Handle) refers to usbusr.o(i.My_Config) for My_Config
    usbh_msc_core.o(i.USBH_MSC_Handle) refers to usbusr.o(i.My_Machine) for My_Machine
    usbh_msc_core.o(i.USBH_MSC_Handle) refers to usbh_msc_bot.o(.bss) for USBH_MSC_BOTXferParam
    usbh_msc_core.o(i.USBH_MSC_Handle) refers to usbh_msc_core.o(.bss) for MSC_Machine
    usbh_msc_core.o(i.USBH_MSC_Handle) refers to usbh_msc_core.o(.data) for maxLunExceed
    usbh_msc_core.o(i.USBH_MSC_InterfaceDeInit) refers to usb_core.o(i.USB_OTG_HC_Halt) for USB_OTG_HC_Halt
    usbh_msc_core.o(i.USBH_MSC_InterfaceDeInit) refers to usbh_hcs.o(i.USBH_Free_Channel) for USBH_Free_Channel
    usbh_msc_core.o(i.USBH_MSC_InterfaceDeInit) refers to usbh_msc_core.o(.bss) for MSC_Machine
    usbh_msc_core.o(i.USBH_MSC_InterfaceInit) refers to _printf_percent.o(.ARM.Collect$$_printf_percent$$00000000) for _printf_percent
    usbh_msc_core.o(i.USBH_MSC_InterfaceInit) refers to _printf_x.o(.ARM.Collect$$_printf_percent$$0000000C) for _printf_x
    usbh_msc_core.o(i.USBH_MSC_InterfaceInit) refers to _printf_hex_int.o(.text) for _printf_longlong_hex
    usbh_msc_core.o(i.USBH_MSC_InterfaceInit) refers to noretval__2printf.o(.text) for __2printf
    usbh_msc_core.o(i.USBH_MSC_InterfaceInit) refers to usbh_hcs.o(i.USBH_Alloc_Channel) for USBH_Alloc_Channel
    usbh_msc_core.o(i.USBH_MSC_InterfaceInit) refers to usbh_hcs.o(i.USBH_Open_Channel) for USBH_Open_Channel
    usbh_msc_core.o(i.USBH_MSC_InterfaceInit) refers to usbh_msc_core.o(.bss) for MSC_Machine
    usbh_msc_core.o(.data) refers to usbh_msc_core.o(i.USBH_MSC_InterfaceInit) for USBH_MSC_InterfaceInit
    usbh_msc_core.o(.data) refers to usbh_msc_core.o(i.USBH_MSC_InterfaceDeInit) for USBH_MSC_InterfaceDeInit
    usbh_msc_core.o(.data) refers to usbh_msc_core.o(i.USBH_MSC_ClassRequest) for USBH_MSC_ClassRequest
    usbh_msc_core.o(.data) refers to usbh_msc_core.o(i.USBH_MSC_Handle) for USBH_MSC_Handle
    usbh_msc_scsi.o(i.USBH_MSC_ModeSense6) refers to usb_hcd.o(i.HCD_IsDeviceConnected) for HCD_IsDeviceConnected
    usbh_msc_scsi.o(i.USBH_MSC_ModeSense6) refers to noretval__2printf.o(.text) for __2printf
    usbh_msc_scsi.o(i.USBH_MSC_ModeSense6) refers to usbh_msc_bot.o(.bss) for USBH_MSC_BOTXferParam
    usbh_msc_scsi.o(i.USBH_MSC_ModeSense6) refers to usbh_msc_scsi.o(.bss) for USBH_DataInBuffer
    usbh_msc_scsi.o(i.USBH_MSC_Read10) refers to usb_hcd.o(i.HCD_IsDeviceConnected) for HCD_IsDeviceConnected
    usbh_msc_scsi.o(i.USBH_MSC_Read10) refers to usbh_msc_scsi.o(.data) for status
    usbh_msc_scsi.o(i.USBH_MSC_Read10) refers to usbh_msc_bot.o(.bss) for USBH_MSC_BOTXferParam
    usbh_msc_scsi.o(i.USBH_MSC_ReadCapacity10) refers to usb_hcd.o(i.HCD_IsDeviceConnected) for HCD_IsDeviceConnected
    usbh_msc_scsi.o(i.USBH_MSC_ReadCapacity10) refers to usbh_msc_bot.o(.bss) for USBH_MSC_BOTXferParam
    usbh_msc_scsi.o(i.USBH_MSC_ReadCapacity10) refers to usbh_msc_scsi.o(.bss) for USBH_DataInBuffer
    usbh_msc_scsi.o(i.USBH_MSC_RequestSense) refers to usb_hcd.o(i.HCD_IsDeviceConnected) for HCD_IsDeviceConnected
    usbh_msc_scsi.o(i.USBH_MSC_RequestSense) refers to usbh_msc_bot.o(.bss) for USBH_MSC_BOTXferParam
    usbh_msc_scsi.o(i.USBH_MSC_RequestSense) refers to usbh_msc_scsi.o(.bss) for USBH_DataInBuffer
    usbh_msc_scsi.o(i.USBH_MSC_TestUnitReady) refers to usb_hcd.o(i.HCD_IsDeviceConnected) for HCD_IsDeviceConnected
    usbh_msc_scsi.o(i.USBH_MSC_TestUnitReady) refers to usbh_msc_bot.o(.bss) for USBH_MSC_BOTXferParam
    usbh_msc_scsi.o(i.USBH_MSC_Write10) refers to usb_hcd.o(i.HCD_IsDeviceConnected) for HCD_IsDeviceConnected
    usbh_msc_scsi.o(i.USBH_MSC_Write10) refers to usbh_msc_bot.o(.bss) for USBH_MSC_BOTXferParam
    usb_bsp.o(i.USB_OTG_BSP_EnableInterrupt) refers to sys.o(i.MY_NVIC_Init) for MY_NVIC_Init
    usb_bsp.o(i.USB_OTG_BSP_Init) refers to sys.o(i.GPIO_Set) for GPIO_Set
    usb_bsp.o(i.USB_OTG_BSP_Init) refers to sys.o(i.GPIO_AF_Set) for GPIO_AF_Set
    usb_bsp.o(i.USB_OTG_BSP_mDelay) refers to delay.o(i.delay_ms) for delay_ms
    usb_bsp.o(i.USB_OTG_BSP_uDelay) refers to delay.o(i.delay_us) for delay_us
    usbh_usr.o(i.OTG_FS_IRQHandler) refers to usb_hcd_int.o(i.USBH_OTG_ISR_Handler) for USBH_OTG_ISR_Handler
    usbh_usr.o(i.OTG_FS_IRQHandler) refers to test.o(.bss) for USB_OTG_Core
    usbh_usr.o(i.USBH_UDISK_Read) refers to usb_hcd.o(i.HCD_IsDeviceConnected) for HCD_IsDeviceConnected
    usbh_usr.o(i.USBH_UDISK_Read) refers to usbh_msc_scsi.o(i.USBH_MSC_Read10) for USBH_MSC_Read10
    usbh_usr.o(i.USBH_UDISK_Read) refers to usbh_msc_bot.o(i.USBH_MSC_HandleBOTXfer) for USBH_MSC_HandleBOTXfer
    usbh_usr.o(i.USBH_UDISK_Read) refers to test.o(.bss) for USB_OTG_Core
    usbh_usr.o(i.USBH_UDISK_Read) refers to usbh_usr.o(.data) for AppState
    usbh_usr.o(i.USBH_UDISK_Status) refers to usb_hcd.o(i.HCD_IsDeviceConnected) for HCD_IsDeviceConnected
    usbh_usr.o(i.USBH_UDISK_Status) refers to test.o(.bss) for USB_OTG_Core
    usbh_usr.o(i.USBH_UDISK_Write) refers to usb_hcd.o(i.HCD_IsDeviceConnected) for HCD_IsDeviceConnected
    usbh_usr.o(i.USBH_UDISK_Write) refers to usbh_msc_scsi.o(i.USBH_MSC_Write10) for USBH_MSC_Write10
    usbh_usr.o(i.USBH_UDISK_Write) refers to usbh_msc_bot.o(i.USBH_MSC_HandleBOTXfer) for USBH_MSC_HandleBOTXfer
    usbh_usr.o(i.USBH_UDISK_Write) refers to test.o(.bss) for USB_OTG_Core
    usbh_usr.o(i.USBH_UDISK_Write) refers to usbh_usr.o(.data) for AppState
    usbh_usr.o(i.USBH_USR_Configuration_DescAvailable) refers to noretval__2printf.o(.text) for __2printf
    usbh_usr.o(i.USBH_USR_DeInit) refers to usbh_usr.o(.data) for AppState
    usbh_usr.o(i.USBH_USR_DeviceAddressAssigned) refers to noretval__2printf.o(.text) for __2printf
    usbh_usr.o(i.USBH_USR_DeviceAttached) refers to noretval__2printf.o(.text) for __2printf
    usbh_usr.o(i.USBH_USR_DeviceDisconnected) refers to noretval__2printf.o(.text) for __2printf
    usbh_usr.o(i.USBH_USR_DeviceNotSupported) refers to noretval__2printf.o(.text) for __2printf
    usbh_usr.o(i.USBH_USR_DeviceSpeedDetected) refers to noretval__2printf.o(.text) for __2printf
    usbh_usr.o(i.USBH_USR_Device_DescAvailable) refers to _printf_pad.o(.text) for _printf_pre_padding
    usbh_usr.o(i.USBH_USR_Device_DescAvailable) refers to _printf_percent.o(.ARM.Collect$$_printf_percent$$00000000) for _printf_percent
    usbh_usr.o(i.USBH_USR_Device_DescAvailable) refers to _printf_x.o(.ARM.Collect$$_printf_percent$$0000000C) for _printf_x
    usbh_usr.o(i.USBH_USR_Device_DescAvailable) refers to _printf_hex_int.o(.text) for _printf_longlong_hex
    usbh_usr.o(i.USBH_USR_Device_DescAvailable) refers to noretval__2printf.o(.text) for __2printf
    usbh_usr.o(i.USBH_USR_EnumerationDone) refers to noretval__2printf.o(.text) for __2printf
    usbh_usr.o(i.USBH_USR_Init) refers to noretval__2printf.o(.text) for __2printf
    usbh_usr.o(i.USBH_USR_MSC_Application) refers to noretval__2printf.o(.text) for __2printf
    usbh_usr.o(i.USBH_USR_MSC_Application) refers to test.o(i.USH_User_App) for USH_User_App
    usbh_usr.o(i.USBH_USR_MSC_Application) refers to usbh_usr.o(.data) for AppState
    usbh_usr.o(i.USBH_USR_Manufacturer_String) refers to _printf_percent.o(.ARM.Collect$$_printf_percent$$00000000) for _printf_percent
    usbh_usr.o(i.USBH_USR_Manufacturer_String) refers to _printf_s.o(.ARM.Collect$$_printf_percent$$00000014) for _printf_s
    usbh_usr.o(i.USBH_USR_Manufacturer_String) refers to _printf_str.o(.text) for _printf_str
    usbh_usr.o(i.USBH_USR_Manufacturer_String) refers to noretval__2printf.o(.text) for __2printf
    usbh_usr.o(i.USBH_USR_OverCurrentDetected) refers to noretval__2printf.o(.text) for __2printf
    usbh_usr.o(i.USBH_USR_Product_String) refers to _printf_percent.o(.ARM.Collect$$_printf_percent$$00000000) for _printf_percent
    usbh_usr.o(i.USBH_USR_Product_String) refers to _printf_s.o(.ARM.Collect$$_printf_percent$$00000014) for _printf_s
    usbh_usr.o(i.USBH_USR_Product_String) refers to _printf_str.o(.text) for _printf_str
    usbh_usr.o(i.USBH_USR_Product_String) refers to noretval__2printf.o(.text) for __2printf
    usbh_usr.o(i.USBH_USR_ResetDevice) refers to noretval__2printf.o(.text) for __2printf
    usbh_usr.o(i.USBH_USR_SerialNum_String) refers to _printf_percent.o(.ARM.Collect$$_printf_percent$$00000000) for _printf_percent
    usbh_usr.o(i.USBH_USR_SerialNum_String) refers to _printf_s.o(.ARM.Collect$$_printf_percent$$00000014) for _printf_s
    usbh_usr.o(i.USBH_USR_SerialNum_String) refers to _printf_str.o(.text) for _printf_str
    usbh_usr.o(i.USBH_USR_SerialNum_String) refers to noretval__2printf.o(.text) for __2printf
    usbh_usr.o(i.USBH_USR_UnrecoveredError) refers to noretval__2printf.o(.text) for __2printf
    usbh_usr.o(i.USBH_USR_UserInput) refers to noretval__2printf.o(.text) for __2printf
    usbh_usr.o(i.md_send) refers to _printf_percent.o(.ARM.Collect$$_printf_percent$$00000000) for _printf_percent
    usbh_usr.o(i.md_send) refers to _printf_d.o(.ARM.Collect$$_printf_percent$$00000009) for _printf_d
    usbh_usr.o(i.md_send) refers to _printf_dec.o(.text) for _printf_int_dec
    usbh_usr.o(i.md_send) refers to _printf_s.o(.ARM.Collect$$_printf_percent$$00000014) for _printf_s
    usbh_usr.o(i.md_send) refers to _printf_str.o(.text) for _printf_str
    usbh_usr.o(i.md_send) refers to noretval__2printf.o(.text) for __2printf
    usbh_usr.o(i.md_send) refers to usb_hcd.o(i.HCD_IsDeviceConnected) for HCD_IsDeviceConnected
    usbh_usr.o(i.md_send) refers to usbh_msc_bot.o(i.USBH_MSC_HandleBOTXfer) for USBH_MSC_HandleBOTXfer
    usbh_usr.o(i.md_send) refers to test.o(.bss) for USB_OTG_Core
    usbh_usr.o(i.md_send) refers to usbh_usr.o(.data) for AppState
    usbh_usr.o(i.md_send) refers to usbh_msc_bot.o(.bss) for USBH_MSC_BOTXferParam
    usbh_usr.o(.data) refers to usbh_usr.o(i.USBH_USR_Init) for USBH_USR_Init
    usbh_usr.o(.data) refers to usbh_usr.o(i.USBH_USR_DeInit) for USBH_USR_DeInit
    usbh_usr.o(.data) refers to usbh_usr.o(i.USBH_USR_DeviceAttached) for USBH_USR_DeviceAttached
    usbh_usr.o(.data) refers to usbh_usr.o(i.USBH_USR_ResetDevice) for USBH_USR_ResetDevice
    usbh_usr.o(.data) refers to usbh_usr.o(i.USBH_USR_DeviceDisconnected) for USBH_USR_DeviceDisconnected
    usbh_usr.o(.data) refers to usbh_usr.o(i.USBH_USR_OverCurrentDetected) for USBH_USR_OverCurrentDetected
    usbh_usr.o(.data) refers to usbh_usr.o(i.USBH_USR_DeviceSpeedDetected) for USBH_USR_DeviceSpeedDetected
    usbh_usr.o(.data) refers to usbh_usr.o(i.USBH_USR_Device_DescAvailable) for USBH_USR_Device_DescAvailable
    usbh_usr.o(.data) refers to usbh_usr.o(i.USBH_USR_DeviceAddressAssigned) for USBH_USR_DeviceAddressAssigned
    usbh_usr.o(.data) refers to usbh_usr.o(i.USBH_USR_Configuration_DescAvailable) for USBH_USR_Configuration_DescAvailable
    usbh_usr.o(.data) refers to usbh_usr.o(i.USBH_USR_Manufacturer_String) for USBH_USR_Manufacturer_String
    usbh_usr.o(.data) refers to usbh_usr.o(i.USBH_USR_Product_String) for USBH_USR_Product_String
    usbh_usr.o(.data) refers to usbh_usr.o(i.USBH_USR_SerialNum_String) for USBH_USR_SerialNum_String
    usbh_usr.o(.data) refers to usbh_usr.o(i.USBH_USR_EnumerationDone) for USBH_USR_EnumerationDone
    usbh_usr.o(.data) refers to usbh_usr.o(i.USBH_USR_UserInput) for USBH_USR_UserInput
    usbh_usr.o(.data) refers to usbh_usr.o(i.USBH_USR_MSC_Application) for USBH_USR_MSC_Application
    usbh_usr.o(.data) refers to usbh_usr.o(i.USBH_USR_DeviceNotSupported) for USBH_USR_DeviceNotSupported
    usbh_usr.o(.data) refers to usbh_usr.o(i.USBH_USR_UnrecoveredError) for USBH_USR_UnrecoveredError
    usbusr.o(i.DeInit) refers to usb_core.o(i.USB_OTG_HC_Halt) for USB_OTG_HC_Halt
    usbusr.o(i.DeInit) refers to usbh_hcs.o(i.USBH_Free_Channel) for USBH_Free_Channel
    usbusr.o(i.DeInit) refers to ff.o(i.f_close) for f_close
    usbusr.o(i.DeInit) refers to usbusr.o(.data) for myClass
    usbusr.o(i.DeInit) refers to usbusr.o(.bss) for fftemp
    usbusr.o(i.Init) refers to _printf_percent.o(.ARM.Collect$$_printf_percent$$00000000) for _printf_percent
    usbusr.o(i.Init) refers to _printf_x.o(.ARM.Collect$$_printf_percent$$0000000C) for _printf_x
    usbusr.o(i.Init) refers to _printf_hex_int.o(.text) for _printf_longlong_hex
    usbusr.o(i.Init) refers to _printf_d.o(.ARM.Collect$$_printf_percent$$00000009) for _printf_d
    usbusr.o(i.Init) refers to _printf_dec.o(.text) for _printf_int_dec
    usbusr.o(i.Init) refers to ff.o(i.f_open) for f_open
    usbusr.o(i.Init) refers to noretval__2printf.o(.text) for __2printf
    usbusr.o(i.Init) refers to usbh_hcs.o(i.USBH_Alloc_Channel) for USBH_Alloc_Channel
    usbusr.o(i.Init) refers to usbh_hcs.o(i.USBH_Open_Channel) for USBH_Open_Channel
    usbusr.o(i.Init) refers to usbusr.o(.data) for fxpath
    usbusr.o(i.Init) refers to usbusr.o(.bss) for fftemp
    usbusr.o(i.My_Config) refers to _printf_percent.o(.ARM.Collect$$_printf_percent$$00000000) for _printf_percent
    usbusr.o(i.My_Config) refers to _printf_d.o(.ARM.Collect$$_printf_percent$$00000009) for _printf_d
    usbusr.o(i.My_Config) refers to _printf_dec.o(.text) for _printf_int_dec
    usbusr.o(i.My_Config) refers to ff.o(i.f_open) for f_open
    usbusr.o(i.My_Config) refers to ff.o(i.f_gets) for f_gets
    usbusr.o(i.My_Config) refers to strlen.o(.text) for strlen
    usbusr.o(i.My_Config) refers to noretval__2printf.o(.text) for __2printf
    usbusr.o(i.My_Config) refers to usbh_ioreq.o(i.USBH_BulkSendData) for USBH_BulkSendData
    usbusr.o(i.My_Config) refers to usb_hcd.o(i.HCD_GetURB_State) for HCD_GetURB_State
    usbusr.o(i.My_Config) refers to ff.o(i.f_close) for f_close
    usbusr.o(i.My_Config) refers to usbh_ioreq.o(i.USBH_BulkReceiveData) for USBH_BulkReceiveData
    usbusr.o(i.My_Config) refers to usb_hcd.o(i.HCD_GetXferCnt) for HCD_GetXferCnt
    usbusr.o(i.My_Config) refers to usbusr.o(.data) for first_config
    usbusr.o(i.My_Config) refers to usbusr.o(.bss) for fftemp1
    usbusr.o(i.My_Config) refers to usbh_msc_core.o(.bss) for MSC_Machine
    usbusr.o(i.My_Machine) refers to _printf_percent.o(.ARM.Collect$$_printf_percent$$00000000) for _printf_percent
    usbusr.o(i.My_Machine) refers to _printf_s.o(.ARM.Collect$$_printf_percent$$00000014) for _printf_s
    usbusr.o(i.My_Machine) refers to _printf_str.o(.text) for _printf_str
    usbusr.o(i.My_Machine) refers to _printf_d.o(.ARM.Collect$$_printf_percent$$00000009) for _printf_d
    usbusr.o(i.My_Machine) refers to _printf_dec.o(.text) for _printf_int_dec
    usbusr.o(i.My_Machine) refers to ff.o(i.f_open) for f_open
    usbusr.o(i.My_Machine) refers to ff.o(i.f_gets) for f_gets
    usbusr.o(i.My_Machine) refers to strlen.o(.text) for strlen
    usbusr.o(i.My_Machine) refers to noretval__2printf.o(.text) for __2printf
    usbusr.o(i.My_Machine) refers to usbh_ioreq.o(i.USBH_BulkSendData) for USBH_BulkSendData
    usbusr.o(i.My_Machine) refers to delay.o(i.delay_ms) for delay_ms
    usbusr.o(i.My_Machine) refers to usb_hcd.o(i.HCD_GetURB_State) for HCD_GetURB_State
    usbusr.o(i.My_Machine) refers to ff.o(i.f_close) for f_close
    usbusr.o(i.My_Machine) refers to usbh_ioreq.o(i.USBH_BulkReceiveData) for USBH_BulkReceiveData
    usbusr.o(i.My_Machine) refers to usb_hcd.o(i.HCD_GetXferCnt) for HCD_GetXferCnt
    usbusr.o(i.My_Machine) refers to usbusr.o(.data) for first_machine
    usbusr.o(i.My_Machine) refers to usbusr.o(.bss) for fftemp
    usbusr.o(i.My_Machine) refers to usbh_msc_core.o(.bss) for MSC_Machine
    usbusr.o(.data) refers to usbusr.o(.conststring) for .conststring
    usbusr.o(.data) refers to usbusr.o(i.Init) for Init
    usbusr.o(.data) refers to usbusr.o(i.DeInit) for DeInit
    usbusr.o(.data) refers to usbusr.o(i.Requests) for Requests
    usbusr.o(.data) refers to usbusr.o(i.My_Machine) for My_Machine
    use_no_semi_2.o(.text) refers (Special) to use_no_semi.o(.text) for __use_no_semihosting_swi
    llsdiv.o(.text) refers to lludivv7m.o(.text) for __aeabi_uldivmod
    __2printf.o(.text) refers to _printf_char_file.o(.text) for _printf_char_file
    __2printf.o(.text) refers to usart.o(.data) for __stdout
    noretval__2printf.o(.text) refers to _printf_char_file.o(.text) for _printf_char_file
    noretval__2printf.o(.text) refers to usart.o(.data) for __stdout
    __printf.o(.text) refers to _printf_percent.o(.ARM.Collect$$_printf_percent$$00000000) for _printf_percent
    _printf_str.o(.text) refers (Special) to _printf_char.o(.text) for _printf_cs_common
    _printf_str.o(.text) refers (Weak) to _printf_pad.o(.text) for _printf_pre_padding
    _printf_str.o(.text) refers (Weak) to _printf_pad.o(.text) for _printf_post_padding
    _printf_dec.o(.text) refers to _printf_intcommon.o(.text) for _printf_int_common
    _printf_hex_ll.o(.text) refers to _printf_intcommon.o(.text) for _printf_int_common
    _printf_hex_ll.o(.text) refers to _printf_hex_ll.o(.constdata) for .constdata
    _printf_hex_int.o(.text) refers to _printf_intcommon.o(.text) for _printf_int_common
    _printf_hex_int.o(.text) refers to _printf_hex_int.o(.constdata) for .constdata
    _printf_hex_int_ll.o(.text) refers to _printf_intcommon.o(.text) for _printf_int_common
    _printf_hex_int_ll.o(.text) refers to _printf_hex_int_ll.o(.constdata) for .constdata
    _printf_hex_ptr.o(.text) refers to _printf_intcommon.o(.text) for _printf_int_common
    _printf_hex_ptr.o(.text) refers to _printf_hex_ptr.o(.constdata) for .constdata
    _printf_hex_int_ptr.o(.text) refers to _printf_intcommon.o(.text) for _printf_int_common
    _printf_hex_int_ptr.o(.text) refers to _printf_hex_int_ptr.o(.constdata) for .constdata
    _printf_hex_ll_ptr.o(.text) refers to _printf_intcommon.o(.text) for _printf_int_common
    _printf_hex_ll_ptr.o(.text) refers to _printf_hex_ll_ptr.o(.constdata) for .constdata
    _printf_hex_int_ll_ptr.o(.text) refers to _printf_intcommon.o(.text) for _printf_int_common
    _printf_hex_int_ll_ptr.o(.text) refers to _printf_hex_int_ll_ptr.o(.constdata) for .constdata
    __printf_flags.o(.text) refers to _printf_percent.o(.ARM.Collect$$_printf_percent$$00000000) for _printf_percent
    __printf_flags.o(.text) refers to __printf_flags.o(.constdata) for .constdata
    __printf_ss.o(.text) refers to _printf_percent.o(.ARM.Collect$$_printf_percent$$00000000) for _printf_percent
    __printf_flags_ss.o(.text) refers to _printf_percent.o(.ARM.Collect$$_printf_percent$$00000000) for _printf_percent
    __printf_flags_ss.o(.text) refers to __printf_flags_ss.o(.constdata) for .constdata
    __printf_wp.o(.text) refers to __printf_wp.o(i._is_digit) for _is_digit
    __printf_wp.o(.text) refers to _printf_percent.o(.ARM.Collect$$_printf_percent$$00000000) for _printf_percent
    __printf_flags_wp.o(.text) refers to __printf_wp.o(i._is_digit) for _is_digit
    __printf_flags_wp.o(.text) refers to _printf_percent.o(.ARM.Collect$$_printf_percent$$00000000) for _printf_percent
    __printf_flags_wp.o(.text) refers to __printf_flags_wp.o(.constdata) for .constdata
    __printf_ss_wp.o(.text) refers to __printf_wp.o(i._is_digit) for _is_digit
    __printf_ss_wp.o(.text) refers to _printf_percent.o(.ARM.Collect$$_printf_percent$$00000000) for _printf_percent
    __printf_flags_ss_wp.o(.text) refers to __printf_wp.o(i._is_digit) for _is_digit
    __printf_flags_ss_wp.o(.text) refers to _printf_percent.o(.ARM.Collect$$_printf_percent$$00000000) for _printf_percent
    __printf_flags_ss_wp.o(.text) refers to __printf_flags_ss_wp.o(.constdata) for .constdata
    _printf_c.o(.ARM.Collect$$_printf_percent$$00000013) refers (Weak) to _printf_char.o(.text) for _printf_char
    _printf_s.o(.ARM.Collect$$_printf_percent$$00000014) refers (Weak) to _printf_char.o(.text) for _printf_string
    _printf_x.o(.ARM.Collect$$_printf_percent$$0000000C) refers (Weak) to _printf_hex_int.o(.text) for _printf_int_hex
    _printf_d.o(.ARM.Collect$$_printf_percent$$00000009) refers (Weak) to _printf_dec.o(.text) for _printf_int_dec
    _printf_u.o(.ARM.Collect$$_printf_percent$$0000000A) refers (Weak) to _printf_dec.o(.text) for _printf_int_dec
    _printf_percent.o(.ARM.Collect$$_printf_percent$$00000000) refers (Special) to _printf_percent_end.o(.ARM.Collect$$_printf_percent$$00000017) for _printf_percent_end
    rt_memcpy_v6.o(.text) refers to rt_memcpy_w.o(.text) for __aeabi_memcpy4
    __main.o(!!!main) refers to rtentry.o(.ARM.Collect$$rtentry$$00000000) for __rt_entry
    rtentry.o(.ARM.Collect$$rtentry$$00000000) refers (Special) to rtentry2.o(.ARM.Collect$$rtentry$$0000000A) for __rt_entry_li
    rtentry.o(.ARM.Collect$$rtentry$$00000000) refers (Special) to rtentry2.o(.ARM.Collect$$rtentry$$0000000D) for __rt_entry_main
    rtentry.o(.ARM.Collect$$rtentry$$00000000) refers (Special) to rtentry2.o(.ARM.Collect$$rtentry$$0000000C) for __rt_entry_postli_1
    rtentry.o(.ARM.Collect$$rtentry$$00000000) refers (Special) to rtentry2.o(.ARM.Collect$$rtentry$$00000009) for __rt_entry_postsh_1
    rtentry.o(.ARM.Collect$$rtentry$$00000000) refers (Special) to rtentry2.o(.ARM.Collect$$rtentry$$00000002) for __rt_entry_presh_1
    rtentry.o(.ARM.Collect$$rtentry$$00000000) refers (Special) to rtentry4.o(.ARM.Collect$$rtentry$$00000004) for __rt_entry_sh
    _printf_intcommon.o(.text) refers (Weak) to _printf_pad.o(.text) for _printf_pre_padding
    _printf_intcommon.o(.text) refers (Weak) to _printf_pad.o(.text) for _printf_pre_padding
    _printf_intcommon.o(.text) refers (Weak) to _printf_pad.o(.text) for _printf_post_padding
    _printf_char.o(.text) refers (Weak) to _printf_str.o(.text) for _printf_str
    _printf_char_file.o(.text) refers to _printf_char_common.o(.text) for _printf_char_common
    _printf_char_file.o(.text) refers to ferror.o(.text) for ferror
    _printf_char_file.o(.text) refers to usart.o(i.fputc) for fputc
    rtentry2.o(.ARM.Collect$$rtentry$$00000008) refers to boardinit2.o(.text) for _platform_post_stackheap_init
    rtentry2.o(.ARM.Collect$$rtentry$$0000000A) refers to libinit.o(.ARM.Collect$$libinit$$00000000) for __rt_lib_init
    rtentry2.o(.ARM.Collect$$rtentry$$0000000B) refers to boardinit3.o(.text) for _platform_post_lib_init
    rtentry2.o(.ARM.Collect$$rtentry$$0000000D) refers to test.o(i.main) for main
    rtentry2.o(.ARM.Collect$$rtentry$$0000000D) refers to exit.o(.text) for exit
    rtentry2.o(.ARM.exidx) refers to rtentry2.o(.ARM.Collect$$rtentry$$00000001) for .ARM.Collect$$rtentry$$00000001
    rtentry2.o(.ARM.exidx) refers to rtentry2.o(.ARM.Collect$$rtentry$$00000008) for .ARM.Collect$$rtentry$$00000008
    rtentry2.o(.ARM.exidx) refers to rtentry2.o(.ARM.Collect$$rtentry$$0000000A) for .ARM.Collect$$rtentry$$0000000A
    rtentry2.o(.ARM.exidx) refers to rtentry2.o(.ARM.Collect$$rtentry$$0000000B) for .ARM.Collect$$rtentry$$0000000B
    rtentry2.o(.ARM.exidx) refers to rtentry2.o(.ARM.Collect$$rtentry$$0000000D) for .ARM.Collect$$rtentry$$0000000D
    rtentry4.o(.ARM.Collect$$rtentry$$00000004) refers to sys_stackheap_outer.o(.text) for __user_setup_stackheap
    rtentry4.o(.ARM.exidx) refers to rtentry4.o(.ARM.Collect$$rtentry$$00000004) for .ARM.Collect$$rtentry$$00000004
    aeabi_ldiv0_sigfpe.o(.text) refers to rt_div0.o(.text) for __rt_div0
    _printf_char_common.o(.text) refers to __printf_flags_ss_wp.o(.text) for __printf
    sys_stackheap_outer.o(.text) refers to libspace.o(.text) for __user_perproc_libspace
    sys_stackheap_outer.o(.text) refers to startup_stm32f40_41xxx.o(.text) for __user_initial_stackheap
    rt_div0.o(.text) refers to defsig_fpe_outer.o(.text) for __rt_SIGFPE
    exit.o(.text) refers to rtexit.o(.ARM.Collect$$rtexit$$00000000) for __rt_exit
    libinit.o(.ARM.Collect$$libinit$$00000000) refers (Special) to libinit2.o(.ARM.Collect$$libinit$$0000002C) for __rt_lib_init_alloca_1
    libinit.o(.ARM.Collect$$libinit$$00000000) refers (Special) to libinit2.o(.ARM.Collect$$libinit$$0000002A) for __rt_lib_init_argv_1
    libinit.o(.ARM.Collect$$libinit$$00000000) refers (Special) to libinit2.o(.ARM.Collect$$libinit$$00000019) for __rt_lib_init_atexit_1
    libinit.o(.ARM.Collect$$libinit$$00000000) refers (Special) to libinit2.o(.ARM.Collect$$libinit$$0000001F) for __rt_lib_init_clock_1
    libinit.o(.ARM.Collect$$libinit$$00000000) refers (Special) to libinit2.o(.ARM.Collect$$libinit$$00000030) for __rt_lib_init_cpp_1
    libinit.o(.ARM.Collect$$libinit$$00000000) refers (Special) to libinit2.o(.ARM.Collect$$libinit$$0000002E) for __rt_lib_init_exceptions_1
    libinit.o(.ARM.Collect$$libinit$$00000000) refers (Special) to libinit2.o(.ARM.Collect$$libinit$$00000001) for __rt_lib_init_fp_1
    libinit.o(.ARM.Collect$$libinit$$00000000) refers (Special) to libinit2.o(.ARM.Collect$$libinit$$0000001D) for __rt_lib_init_fp_trap_1
    libinit.o(.ARM.Collect$$libinit$$00000000) refers (Special) to libinit2.o(.ARM.Collect$$libinit$$00000021) for __rt_lib_init_getenv_1
    libinit.o(.ARM.Collect$$libinit$$00000000) refers (Special) to libinit2.o(.ARM.Collect$$libinit$$00000008) for __rt_lib_init_heap_1
    libinit.o(.ARM.Collect$$libinit$$00000000) refers (Special) to libinit2.o(.ARM.Collect$$libinit$$0000000F) for __rt_lib_init_lc_collate_1
    libinit.o(.ARM.Collect$$libinit$$00000000) refers (Special) to libinit2.o(.ARM.Collect$$libinit$$00000011) for __rt_lib_init_lc_ctype_1
    libinit.o(.ARM.Collect$$libinit$$00000000) refers (Special) to libinit2.o(.ARM.Collect$$libinit$$00000013) for __rt_lib_init_lc_monetary_1
    libinit.o(.ARM.Collect$$libinit$$00000000) refers (Special) to libinit2.o(.ARM.Collect$$libinit$$00000015) for __rt_lib_init_lc_numeric_1
    libinit.o(.ARM.Collect$$libinit$$00000000) refers (Special) to libinit2.o(.ARM.Collect$$libinit$$00000017) for __rt_lib_init_lc_time_1
    libinit.o(.ARM.Collect$$libinit$$00000000) refers (Special) to libinit2.o(.ARM.Collect$$libinit$$0000000C) for __rt_lib_init_rand_1
    libinit.o(.ARM.Collect$$libinit$$00000000) refers (Special) to libinit2.o(.ARM.Collect$$libinit$$00000031) for __rt_lib_init_return
    libinit.o(.ARM.Collect$$libinit$$00000000) refers (Special) to libinit2.o(.ARM.Collect$$libinit$$0000001B) for __rt_lib_init_signal_1
    libinit.o(.ARM.Collect$$libinit$$00000000) refers (Special) to libinit2.o(.ARM.Collect$$libinit$$00000023) for __rt_lib_init_stdio_1
    libinit.o(.ARM.Collect$$libinit$$00000000) refers (Special) to libinit2.o(.ARM.Collect$$libinit$$0000000A) for __rt_lib_init_user_alloc_1
    libspace.o(.text) refers to libspace.o(.bss) for __libspace_start
    rtexit.o(.ARM.Collect$$rtexit$$00000000) refers (Special) to rtexit2.o(.ARM.Collect$$rtexit$$00000004) for __rt_exit_exit
    rtexit.o(.ARM.Collect$$rtexit$$00000000) refers (Special) to rtexit2.o(.ARM.Collect$$rtexit$$00000003) for __rt_exit_ls
    rtexit.o(.ARM.Collect$$rtexit$$00000000) refers (Special) to rtexit2.o(.ARM.Collect$$rtexit$$00000002) for __rt_exit_prels_1
    rtexit.o(.ARM.exidx) refers (Special) to rtexit2.o(.ARM.Collect$$rtexit$$00000004) for __rt_exit_exit
    rtexit.o(.ARM.exidx) refers (Special) to rtexit2.o(.ARM.Collect$$rtexit$$00000003) for __rt_exit_ls
    rtexit.o(.ARM.exidx) refers (Special) to rtexit2.o(.ARM.Collect$$rtexit$$00000002) for __rt_exit_prels_1
    rtexit.o(.ARM.exidx) refers to rtexit.o(.ARM.Collect$$rtexit$$00000000) for .ARM.Collect$$rtexit$$00000000
    defsig_fpe_outer.o(.text) refers to defsig_fpe_inner.o(.text) for __rt_SIGFPE_inner
    defsig_fpe_outer.o(.text) refers to defsig_exit.o(.text) for __sig_exit
    defsig_fpe_formal.o(.text) refers to rt_raise.o(.text) for __rt_raise
    libinit2.o(.ARM.Collect$$libinit$$00000001) refers to fpinit.o(x$fpl$fpinit) for _fp_init
    libinit2.o(.ARM.Collect$$libinit$$0000000E) refers to libinit2.o(.ARM.Collect$$libinit$$0000000D) for .ARM.Collect$$libinit$$0000000D
    libinit2.o(.ARM.Collect$$libinit$$00000010) refers to libinit2.o(.ARM.Collect$$libinit$$0000000D) for .ARM.Collect$$libinit$$0000000D
    libinit2.o(.ARM.Collect$$libinit$$00000012) refers to libinit2.o(.ARM.Collect$$libinit$$0000000D) for .ARM.Collect$$libinit$$0000000D
    libinit2.o(.ARM.Collect$$libinit$$00000014) refers to libinit2.o(.ARM.Collect$$libinit$$0000000D) for .ARM.Collect$$libinit$$0000000D
    libinit2.o(.ARM.Collect$$libinit$$00000016) refers to libinit2.o(.ARM.Collect$$libinit$$0000000D) for .ARM.Collect$$libinit$$0000000D
    libinit2.o(.ARM.Collect$$libinit$$00000024) refers to argv_veneer.o(.emb_text) for __ARM_argv_veneer
    libinit2.o(.ARM.Collect$$libinit$$00000025) refers to argv_veneer.o(.emb_text) for __ARM_argv_veneer
    rtexit2.o(.ARM.Collect$$rtexit$$00000003) refers to libshutdown.o(.ARM.Collect$$libshutdown$$00000000) for __rt_lib_shutdown
    rtexit2.o(.ARM.Collect$$rtexit$$00000004) refers to usart.o(i._sys_exit) for _sys_exit
    rtexit2.o(.ARM.exidx) refers to rtexit2.o(.ARM.Collect$$rtexit$$00000001) for .ARM.Collect$$rtexit$$00000001
    rtexit2.o(.ARM.exidx) refers to rtexit2.o(.ARM.Collect$$rtexit$$00000003) for .ARM.Collect$$rtexit$$00000003
    rtexit2.o(.ARM.exidx) refers to rtexit2.o(.ARM.Collect$$rtexit$$00000004) for .ARM.Collect$$rtexit$$00000004
    rt_raise.o(.text) refers to __raise.o(.text) for __raise
    rt_raise.o(.text) refers to usart.o(i._sys_exit) for _sys_exit
    defsig_exit.o(.text) refers to usart.o(i._sys_exit) for _sys_exit
    defsig_fpe_inner.o(.text) refers to defsig_general.o(.text) for __default_signal_display
    argv_veneer.o(.emb_text) refers to no_argv.o(.text) for __ARM_get_argv
    __raise.o(.text) refers to defsig.o(CL$$defsig) for __default_signal_handler
    defsig_general.o(.text) refers to sys_wrch.o(.text) for _ttywrch
    _get_argv_nomalloc.o(.text) refers (Special) to hrguard.o(.text) for __heap_region$guard
    _get_argv_nomalloc.o(.text) refers to defsig_rtmem_outer.o(.text) for __rt_SIGRTMEM
    _get_argv_nomalloc.o(.text) refers to sys_command.o(.text) for _sys_command_string
    libshutdown.o(.ARM.Collect$$libshutdown$$00000000) refers (Special) to libshutdown2.o(.ARM.Collect$$libshutdown$$00000006) for __rt_lib_shutdown_fp_trap_1
    libshutdown.o(.ARM.Collect$$libshutdown$$00000000) refers (Special) to libshutdown2.o(.ARM.Collect$$libshutdown$$0000000E) for __rt_lib_shutdown_heap_1
    libshutdown.o(.ARM.Collect$$libshutdown$$00000000) refers (Special) to libshutdown2.o(.ARM.Collect$$libshutdown$$0000000F) for __rt_lib_shutdown_return
    libshutdown.o(.ARM.Collect$$libshutdown$$00000000) refers (Special) to libshutdown2.o(.ARM.Collect$$libshutdown$$00000009) for __rt_lib_shutdown_signal_1
    libshutdown.o(.ARM.Collect$$libshutdown$$00000000) refers (Special) to libshutdown2.o(.ARM.Collect$$libshutdown$$00000003) for __rt_lib_shutdown_stdio_1
    libshutdown.o(.ARM.Collect$$libshutdown$$00000000) refers (Special) to libshutdown2.o(.ARM.Collect$$libshutdown$$0000000B) for __rt_lib_shutdown_user_alloc_1
    sys_wrch.o(.text) refers (Special) to use_no_semi.o(.text) for __I$use$semihosting
    sys_wrch.o(.text) refers (Special) to indicate_semi.o(.text) for __semihosting_library_function
    sys_command.o(.text) refers (Special) to use_no_semi.o(.text) for __I$use$semihosting
    sys_command.o(.text) refers (Special) to indicate_semi.o(.text) for __semihosting_library_function
    defsig_rtmem_outer.o(.text) refers to defsig_rtmem_inner.o(.text) for __rt_SIGRTMEM_inner
    defsig_rtmem_outer.o(.text) refers to defsig_exit.o(.text) for __sig_exit
    defsig_rtmem_formal.o(.text) refers to rt_raise.o(.text) for __rt_raise
    defsig.o(CL$$defsig) refers to defsig_fpe_inner.o(.text) for __rt_SIGFPE_inner
    defsig.o(CL$$defsig) refers to defsig_rtmem_inner.o(.text) for __rt_SIGRTMEM_inner
    defsig_abrt_inner.o(.text) refers to defsig_general.o(.text) for __default_signal_display
    defsig_rtred_inner.o(.text) refers to defsig_general.o(.text) for __default_signal_display
    defsig_rtmem_inner.o(.text) refers to defsig_general.o(.text) for __default_signal_display
    defsig_stak_inner.o(.text) refers to defsig_general.o(.text) for __default_signal_display
    defsig_pvfn_inner.o(.text) refers to defsig_general.o(.text) for __default_signal_display
    defsig_cppl_inner.o(.text) refers to defsig_general.o(.text) for __default_signal_display
    defsig_segv_inner.o(.text) refers to defsig_general.o(.text) for __default_signal_display
    defsig_other.o(.text) refers to defsig_general.o(.text) for __default_signal_display


==============================================================================

Removing Unused input sections from the image.

    Removing test.o(.rev16_text), (4 bytes).
    Removing test.o(.revsh_text), (4 bytes).
    Removing delay.o(.rev16_text), (4 bytes).
    Removing delay.o(.revsh_text), (4 bytes).
    Removing sys.o(.rev16_text), (4 bytes).
    Removing sys.o(.revsh_text), (4 bytes).
    Removing sys.o(i.Ex_NVIC_Config), (180 bytes).
    Removing sys.o(i.Sys_Soft_Reset), (16 bytes).
    Removing sys.o(i.Sys_Standby), (76 bytes).
    Removing usart.o(.rev16_text), (4 bytes).
    Removing usart.o(.revsh_text), (4 bytes).
    Removing led.o(.rev16_text), (4 bytes).
    Removing led.o(.revsh_text), (4 bytes).
    Removing ili93xx.o(.rev16_text), (4 bytes).
    Removing ili93xx.o(.revsh_text), (4 bytes).
    Removing ili93xx.o(i.LCD_DisplayOff), (84 bytes).
    Removing ili93xx.o(i.LCD_DisplayOn), (84 bytes).
    Removing ili93xx.o(i.LCD_DrawLine), (176 bytes).
    Removing ili93xx.o(i.LCD_DrawPoint), (36 bytes).
    Removing ili93xx.o(i.LCD_DrawRectangle), (60 bytes).
    Removing ili93xx.o(i.LCD_Draw_Circle), (152 bytes).
    Removing ili93xx.o(i.LCD_Set_Window), (388 bytes).
    Removing ili93xx.o(i.LCD_ShowxNum), (190 bytes).
    Removing ili93xx.o(i.LCD_WriteRAM), (12 bytes).
    Removing key.o(.rev16_text), (4 bytes).
    Removing key.o(.revsh_text), (4 bytes).
    Removing key.o(i.KEY_Scan), (164 bytes).
    Removing key.o(.data), (1 bytes).
    Removing sdio_sdcard.o(.rev16_text), (4 bytes).
    Removing sdio_sdcard.o(.revsh_text), (4 bytes).
    Removing sdio_sdcard.o(i.SD_GetState), (26 bytes).
    Removing sdio_sdcard.o(i.SD_PowerOFF), (20 bytes).
    Removing sdio_sdcard.o(i.SD_SendStatus), (60 bytes).
    Removing spi.o(.rev16_text), (4 bytes).
    Removing spi.o(.revsh_text), (4 bytes).
    Removing w25qxx.o(.rev16_text), (4 bytes).
    Removing w25qxx.o(.revsh_text), (4 bytes).
    Removing w25qxx.o(i.W25QXX_Erase_Chip), (44 bytes).
    Removing w25qxx.o(i.W25QXX_PowerDown), (40 bytes).
    Removing w25qxx.o(i.W25QXX_WAKEUP), (40 bytes).
    Removing w25qxx.o(i.W25QXX_Write_Disable), (32 bytes).
    Removing w25qxx.o(i.W25QXX_Write_SR), (40 bytes).
    Removing malloc.o(.rev16_text), (4 bytes).
    Removing malloc.o(.revsh_text), (4 bytes).
    Removing malloc.o(i.mymemcpy), (26 bytes).
    Removing malloc.o(i.myrealloc), (68 bytes).
    Removing ff.o(i.f_chmod), (112 bytes).
    Removing ff.o(i.f_printf), (628 bytes).
    Removing ff.o(i.f_stat), (84 bytes).
    Removing ff.o(i.f_truncate), (184 bytes).
    Removing ff.o(i.f_utime), (110 bytes).
    Removing diskio.o(.rev16_text), (4 bytes).
    Removing diskio.o(.revsh_text), (4 bytes).
    Removing exfuns.o(.rev16_text), (4 bytes).
    Removing exfuns.o(.revsh_text), (4 bytes).
    Removing fattester.o(.rev16_text), (4 bytes).
    Removing fattester.o(.revsh_text), (4 bytes).
    Removing mycc936.o(.rev16_text), (4 bytes).
    Removing mycc936.o(.revsh_text), (4 bytes).
    Removing fontupd.o(.rev16_text), (4 bytes).
    Removing fontupd.o(.revsh_text), (4 bytes).
    Removing fontupd.o(i.fupd_prog), (156 bytes).
    Removing fontupd.o(i.updata_fontx), (356 bytes).
    Removing fontupd.o(i.update_font), (916 bytes).
    Removing fontupd.o(.constdata), (16 bytes).
    Removing fontupd.o(.conststring), (96 bytes).
    Removing text.o(.rev16_text), (4 bytes).
    Removing text.o(.revsh_text), (4 bytes).
    Removing text.o(i.Show_Str_Mid), (112 bytes).
    Removing piclib.o(.rev16_text), (4 bytes).
    Removing piclib.o(.revsh_text), (4 bytes).
    Removing bmp.o(.rev16_text), (4 bytes).
    Removing bmp.o(.revsh_text), (4 bytes).
    Removing bmp.o(i.bmp_encode), (496 bytes).
    Removing gif.o(.rev16_text), (4 bytes).
    Removing gif.o(.revsh_text), (4 bytes).
    Removing gif.o(i.gif_quit), (12 bytes).
    Removing tjpgd.o(.rev16_text), (4 bytes).
    Removing tjpgd.o(.revsh_text), (4 bytes).
    Removing usmart.o(.rev16_text), (4 bytes).
    Removing usmart.o(.revsh_text), (4 bytes).
    Removing usmart_config.o(.rev16_text), (4 bytes).
    Removing usmart_config.o(.revsh_text), (4 bytes).
    Removing usmart_str.o(.rev16_text), (4 bytes).
    Removing usmart_str.o(.revsh_text), (4 bytes).
    Removing usb_core.o(.rev16_text), (4 bytes).
    Removing usb_core.o(.revsh_text), (4 bytes).
    Removing usb_core.o(i.USB_OTG_IsDeviceMode), (22 bytes).
    Removing usb_core.o(i.USB_OTG_ReadOtgItr), (8 bytes).
    Removing usb_core.o(i.USB_OTG_StopHost), (96 bytes).
    Removing usb_hcd.o(.rev16_text), (4 bytes).
    Removing usb_hcd.o(.revsh_text), (4 bytes).
    Removing usb_hcd.o(i.HCD_GetHCState), (10 bytes).
    Removing usb_hcd.o(i.HCD_HC_Init), (16 bytes).
    Removing usb_hcd_int.o(.rev16_text), (4 bytes).
    Removing usb_hcd_int.o(.revsh_text), (4 bytes).
    Removing usbh_core.o(.rev16_text), (4 bytes).
    Removing usbh_core.o(.revsh_text), (4 bytes).
    Removing usbh_hcs.o(.rev16_text), (4 bytes).
    Removing usbh_hcs.o(.revsh_text), (4 bytes).
    Removing usbh_ioreq.o(.rev16_text), (4 bytes).
    Removing usbh_ioreq.o(.revsh_text), (4 bytes).
    Removing usbh_ioreq.o(i.USBH_InterruptReceiveData), (120 bytes).
    Removing usbh_ioreq.o(i.USBH_InterruptSendData), (118 bytes).
    Removing usbh_ioreq.o(i.USBH_IsocReceiveData), (70 bytes).
    Removing usbh_ioreq.o(i.USBH_IsocSendData), (68 bytes).
    Removing usbh_stdreq.o(.rev16_text), (4 bytes).
    Removing usbh_stdreq.o(.revsh_text), (4 bytes).
    Removing usbh_stdreq.o(i.USBH_SetInterface), (44 bytes).
    Removing usbh_msc_bot.o(.rev16_text), (4 bytes).
    Removing usbh_msc_bot.o(.revsh_text), (4 bytes).
    Removing usbh_msc_core.o(.rev16_text), (4 bytes).
    Removing usbh_msc_core.o(.revsh_text), (4 bytes).
    Removing usbh_msc_scsi.o(.rev16_text), (4 bytes).
    Removing usbh_msc_scsi.o(.revsh_text), (4 bytes).
    Removing usb_bsp.o(.rev16_text), (4 bytes).
    Removing usb_bsp.o(.revsh_text), (4 bytes).
    Removing usb_bsp.o(i.USB_OTG_BSP_DisableInterrupt), (2 bytes).
    Removing usbh_usr.o(.rev16_text), (4 bytes).
    Removing usbh_usr.o(.revsh_text), (4 bytes).
    Removing usbusr.o(.rev16_text), (4 bytes).
    Removing usbusr.o(.revsh_text), (4 bytes).

122 unused section(s) (total 6163 bytes) removed from the image.

==============================================================================

Image Symbol Table

    Local Symbols

    Symbol Name                              Value     Ov Type        Size  Object(Section)

    ../clib/angel/boardlib.s                 0x00000000   Number         0  boardinit1.o ABSOLUTE
    ../clib/angel/boardlib.s                 0x00000000   Number         0  boardinit2.o ABSOLUTE
    ../clib/angel/boardlib.s                 0x00000000   Number         0  boardshut.o ABSOLUTE
    ../clib/angel/boardlib.s                 0x00000000   Number         0  boardinit3.o ABSOLUTE
    ../clib/angel/dczerorl2.s                0x00000000   Number         0  __dczerorl2.o ABSOLUTE
    ../clib/angel/handlers.s                 0x00000000   Number         0  __scatter_zi.o ABSOLUTE
    ../clib/angel/kernel.s                   0x00000000   Number         0  rtentry.o ABSOLUTE
    ../clib/angel/kernel.s                   0x00000000   Number         0  rtentry4.o ABSOLUTE
    ../clib/angel/kernel.s                   0x00000000   Number         0  rtentry2.o ABSOLUTE
    ../clib/angel/kernel.s                   0x00000000   Number         0  rtexit2.o ABSOLUTE
    ../clib/angel/kernel.s                   0x00000000   Number         0  rtexit.o ABSOLUTE
    ../clib/angel/rt.s                       0x00000000   Number         0  rt_div0.o ABSOLUTE
    ../clib/angel/rt.s                       0x00000000   Number         0  aeabi_ldiv0_sigfpe.o ABSOLUTE
    ../clib/angel/rt.s                       0x00000000   Number         0  aeabi_ldiv0.o ABSOLUTE
    ../clib/angel/rt.s                       0x00000000   Number         0  rt_raise.o ABSOLUTE
    ../clib/angel/scatter.s                  0x00000000   Number         0  __scatter.o ABSOLUTE
    ../clib/angel/startup.s                  0x00000000   Number         0  __main.o ABSOLUTE
    ../clib/angel/sys.s                      0x00000000   Number         0  use_no_semi.o ABSOLUTE
    ../clib/angel/sys.s                      0x00000000   Number         0  sys_stackheap_outer.o ABSOLUTE
    ../clib/angel/sys.s                      0x00000000   Number         0  use_no_semi_2.o ABSOLUTE
    ../clib/angel/sys.s                      0x00000000   Number         0  indicate_semi.o ABSOLUTE
    ../clib/angel/sys.s                      0x00000000   Number         0  libspace.o ABSOLUTE
    ../clib/angel/sysapp.c                   0x00000000   Number         0  sys_command.o ABSOLUTE
    ../clib/angel/sysapp.c                   0x00000000   Number         0  sys_wrch.o ABSOLUTE
    ../clib/armsys.c                         0x00000000   Number         0  argv_veneer.o ABSOLUTE
    ../clib/armsys.c                         0x00000000   Number         0  no_argv.o ABSOLUTE
    ../clib/armsys.c                         0x00000000   Number         0  _get_argv_nomalloc.o ABSOLUTE
    ../clib/armsys.c                         0x00000000   Number         0  argv_veneer.o ABSOLUTE
    ../clib/heapalloc.c                      0x00000000   Number         0  hrguard.o ABSOLUTE
    ../clib/heapaux.c                        0x00000000   Number         0  heapauxi.o ABSOLUTE
    ../clib/libinit.s                        0x00000000   Number         0  libshutdown2.o ABSOLUTE
    ../clib/libinit.s                        0x00000000   Number         0  libinit2.o ABSOLUTE
    ../clib/libinit.s                        0x00000000   Number         0  libinit.o ABSOLUTE
    ../clib/libinit.s                        0x00000000   Number         0  libshutdown.o ABSOLUTE
    ../clib/longlong.s                       0x00000000   Number         0  lludivv7m.o ABSOLUTE
    ../clib/longlong.s                       0x00000000   Number         0  llsdiv.o ABSOLUTE
    ../clib/memcpset.s                       0x00000000   Number         0  rt_memcpy_v6.o ABSOLUTE
    ../clib/memcpset.s                       0x00000000   Number         0  strcmpv7m.o ABSOLUTE
    ../clib/memcpset.s                       0x00000000   Number         0  rt_memcpy_w.o ABSOLUTE
    ../clib/misc.s                           0x00000000   Number         0  printf_stubs.o ABSOLUTE
    ../clib/printf.c                         0x00000000   Number         0  __printf_flags_wp.o ABSOLUTE
    ../clib/printf.c                         0x00000000   Number         0  __printf_ss_wp.o ABSOLUTE
    ../clib/printf.c                         0x00000000   Number         0  _printf_char.o ABSOLUTE
    ../clib/printf.c                         0x00000000   Number         0  _printf_str.o ABSOLUTE
    ../clib/printf.c                         0x00000000   Number         0  _printf_hex_int_ll_ptr.o ABSOLUTE
    ../clib/printf.c                         0x00000000   Number         0  __printf.o ABSOLUTE
    ../clib/printf.c                         0x00000000   Number         0  __2printf.o ABSOLUTE
    ../clib/printf.c                         0x00000000   Number         0  noretval__2printf.o ABSOLUTE
    ../clib/printf.c                         0x00000000   Number         0  _printf_hex_ll.o ABSOLUTE
    ../clib/printf.c                         0x00000000   Number         0  _printf_hex_int.o ABSOLUTE
    ../clib/printf.c                         0x00000000   Number         0  _printf_hex_int_ll.o ABSOLUTE
    ../clib/printf.c                         0x00000000   Number         0  _printf_hex_ptr.o ABSOLUTE
    ../clib/printf.c                         0x00000000   Number         0  _printf_hex_int_ptr.o ABSOLUTE
    ../clib/printf.c                         0x00000000   Number         0  _printf_dec.o ABSOLUTE
    ../clib/printf.c                         0x00000000   Number         0  _printf_hex_ll_ptr.o ABSOLUTE
    ../clib/printf.c                         0x00000000   Number         0  _printf_pad.o ABSOLUTE
    ../clib/printf.c                         0x00000000   Number         0  __printf_flags.o ABSOLUTE
    ../clib/printf.c                         0x00000000   Number         0  __printf_flags_ss_wp.o ABSOLUTE
    ../clib/printf.c                         0x00000000   Number         0  _printf_intcommon.o ABSOLUTE
    ../clib/printf.c                         0x00000000   Number         0  _printf_char_file.o ABSOLUTE
    ../clib/printf.c                         0x00000000   Number         0  __printf_ss.o ABSOLUTE
    ../clib/printf.c                         0x00000000   Number         0  __printf_nopercent.o ABSOLUTE
    ../clib/printf.c                         0x00000000   Number         0  __printf_flags_ss.o ABSOLUTE
    ../clib/printf.c                         0x00000000   Number         0  __printf_wp.o ABSOLUTE
    ../clib/printf.c                         0x00000000   Number         0  _printf_char_common.o ABSOLUTE
    ../clib/printf_percent.s                 0x00000000   Number         0  _printf_d.o ABSOLUTE
    ../clib/printf_percent.s                 0x00000000   Number         0  _printf_u.o ABSOLUTE
    ../clib/printf_percent.s                 0x00000000   Number         0  _printf_percent.o ABSOLUTE
    ../clib/printf_percent.s                 0x00000000   Number         0  _printf_c.o ABSOLUTE
    ../clib/printf_percent.s                 0x00000000   Number         0  _printf_s.o ABSOLUTE
    ../clib/printf_percent.s                 0x00000000   Number         0  _printf_percent_end.o ABSOLUTE
    ../clib/printf_percent.s                 0x00000000   Number         0  _printf_x.o ABSOLUTE
    ../clib/signal.c                         0x00000000   Number         0  defsig_rtred_inner.o ABSOLUTE
    ../clib/signal.c                         0x00000000   Number         0  defsig_fpe_inner.o ABSOLUTE
    ../clib/signal.c                         0x00000000   Number         0  defsig_exit.o ABSOLUTE
    ../clib/signal.c                         0x00000000   Number         0  __raise.o ABSOLUTE
    ../clib/signal.c                         0x00000000   Number         0  defsig_rtmem_outer.o ABSOLUTE
    ../clib/signal.c                         0x00000000   Number         0  defsig_general.o ABSOLUTE
    ../clib/signal.c                         0x00000000   Number         0  defsig_other.o ABSOLUTE
    ../clib/signal.c                         0x00000000   Number         0  defsig_abrt_inner.o ABSOLUTE
    ../clib/signal.c                         0x00000000   Number         0  defsig_fpe_formal.o ABSOLUTE
    ../clib/signal.c                         0x00000000   Number         0  defsig_segv_inner.o ABSOLUTE
    ../clib/signal.c                         0x00000000   Number         0  defsig_cppl_inner.o ABSOLUTE
    ../clib/signal.c                         0x00000000   Number         0  defsig_pvfn_inner.o ABSOLUTE
    ../clib/signal.c                         0x00000000   Number         0  defsig_stak_inner.o ABSOLUTE
    ../clib/signal.c                         0x00000000   Number         0  defsig_fpe_outer.o ABSOLUTE
    ../clib/signal.c                         0x00000000   Number         0  defsig_rtmem_formal.o ABSOLUTE
    ../clib/signal.c                         0x00000000   Number         0  defsig_rtmem_inner.o ABSOLUTE
    ../clib/signal.s                         0x00000000   Number         0  defsig.o ABSOLUTE
    ../clib/stdio.c                          0x00000000   Number         0  ferror_locked.o ABSOLUTE
    ../clib/stdio.c                          0x00000000   Number         0  ferror.o ABSOLUTE
    ../clib/stdlib.c                         0x00000000   Number         0  exit.o ABSOLUTE
    ../clib/string.c                         0x00000000   Number         0  strcat.o ABSOLUTE
    ../clib/string.c                         0x00000000   Number         0  strlen.o ABSOLUTE
    ../clib/string.c                         0x00000000   Number         0  strcpy.o ABSOLUTE
    ../fplib/fpinit.s                        0x00000000   Number         0  fpinit.o ABSOLUTE
    ..\FATFS\exfuns\exfuns.c                 0x00000000   Number         0  exfuns.o ABSOLUTE
    ..\FATFS\exfuns\fattester.c              0x00000000   Number         0  fattester.o ABSOLUTE
    ..\FATFS\exfuns\mycc936.c                0x00000000   Number         0  mycc936.o ABSOLUTE
    ..\FATFS\src\diskio.c                    0x00000000   Number         0  diskio.o ABSOLUTE
    ..\FATFS\src\ff.c                        0x00000000   Number         0  ff.o ABSOLUTE
    ..\HARDWARE\KEY\key.c                    0x00000000   Number         0  key.o ABSOLUTE
    ..\HARDWARE\LCD\ILI93xx.c                0x00000000   Number         0  ili93xx.o ABSOLUTE
    ..\HARDWARE\LED\led.c                    0x00000000   Number         0  led.o ABSOLUTE
    ..\HARDWARE\SDIO\sdio_sdcard.c           0x00000000   Number         0  sdio_sdcard.o ABSOLUTE
    ..\HARDWARE\SPI\spi.c                    0x00000000   Number         0  spi.o ABSOLUTE
    ..\HARDWARE\W25QXX\w25qxx.c              0x00000000   Number         0  w25qxx.o ABSOLUTE
    ..\MALLOC\malloc.c                       0x00000000   Number         0  malloc.o ABSOLUTE
    ..\PICTURE\bmp.c                         0x00000000   Number         0  bmp.o ABSOLUTE
    ..\PICTURE\gif.c                         0x00000000   Number         0  gif.o ABSOLUTE
    ..\PICTURE\piclib.c                      0x00000000   Number         0  piclib.o ABSOLUTE
    ..\PICTURE\tjpgd.c                       0x00000000   Number         0  tjpgd.o ABSOLUTE
    ..\SYSTEM\delay\delay.c                  0x00000000   Number         0  delay.o ABSOLUTE
    ..\SYSTEM\sys\sys.c                      0x00000000   Number         0  sys.o ABSOLUTE
    ..\SYSTEM\usart\usart.c                  0x00000000   Number         0  usart.o ABSOLUTE
    ..\TEXT\fontupd.c                        0x00000000   Number         0  fontupd.o ABSOLUTE
    ..\TEXT\text.c                           0x00000000   Number         0  text.o ABSOLUTE
    ..\USB\STM32_USB_HOST_Library\Class\MSC\src\usbh_msc_bot.c 0x00000000   Number         0  usbh_msc_bot.o ABSOLUTE
    ..\USB\STM32_USB_HOST_Library\Class\MSC\src\usbh_msc_core.c 0x00000000   Number         0  usbh_msc_core.o ABSOLUTE
    ..\USB\STM32_USB_HOST_Library\Class\MSC\src\usbh_msc_scsi.c 0x00000000   Number         0  usbh_msc_scsi.o ABSOLUTE
    ..\USB\STM32_USB_HOST_Library\Core\src\usbh_core.c 0x00000000   Number         0  usbh_core.o ABSOLUTE
    ..\USB\STM32_USB_HOST_Library\Core\src\usbh_hcs.c 0x00000000   Number         0  usbh_hcs.o ABSOLUTE
    ..\USB\STM32_USB_HOST_Library\Core\src\usbh_ioreq.c 0x00000000   Number         0  usbh_ioreq.o ABSOLUTE
    ..\USB\STM32_USB_HOST_Library\Core\src\usbh_stdreq.c 0x00000000   Number         0  usbh_stdreq.o ABSOLUTE
    ..\USB\STM32_USB_OTG_Driver\src\usb_core.c 0x00000000   Number         0  usb_core.o ABSOLUTE
    ..\USB\STM32_USB_OTG_Driver\src\usb_hcd.c 0x00000000   Number         0  usb_hcd.o ABSOLUTE
    ..\USB\STM32_USB_OTG_Driver\src\usb_hcd_int.c 0x00000000   Number         0  usb_hcd_int.o ABSOLUTE
    ..\USB\USB_APP\usb_bsp.c                 0x00000000   Number         0  usb_bsp.o ABSOLUTE
    ..\USB\USB_APP\usbh_usr.c                0x00000000   Number         0  usbh_usr.o ABSOLUTE
    ..\USB\USB_APP\usbusr.c                  0x00000000   Number         0  usbusr.o ABSOLUTE
    ..\USMART\usmart.c                       0x00000000   Number         0  usmart.o ABSOLUTE
    ..\USMART\usmart_config.c                0x00000000   Number         0  usmart_config.o ABSOLUTE
    ..\USMART\usmart_str.c                   0x00000000   Number         0  usmart_str.o ABSOLUTE
    ..\\FATFS\\exfuns\\exfuns.c              0x00000000   Number         0  exfuns.o ABSOLUTE
    ..\\FATFS\\exfuns\\fattester.c           0x00000000   Number         0  fattester.o ABSOLUTE
    ..\\FATFS\\exfuns\\mycc936.c             0x00000000   Number         0  mycc936.o ABSOLUTE
    ..\\FATFS\\src\\diskio.c                 0x00000000   Number         0  diskio.o ABSOLUTE
    ..\\HARDWARE\\KEY\\key.c                 0x00000000   Number         0  key.o ABSOLUTE
    ..\\HARDWARE\\LCD\\ILI93xx.c             0x00000000   Number         0  ili93xx.o ABSOLUTE
    ..\\HARDWARE\\LED\\led.c                 0x00000000   Number         0  led.o ABSOLUTE
    ..\\HARDWARE\\SDIO\\sdio_sdcard.c        0x00000000   Number         0  sdio_sdcard.o ABSOLUTE
    ..\\HARDWARE\\SPI\\spi.c                 0x00000000   Number         0  spi.o ABSOLUTE
    ..\\HARDWARE\\W25QXX\\w25qxx.c           0x00000000   Number         0  w25qxx.o ABSOLUTE
    ..\\MALLOC\\malloc.c                     0x00000000   Number         0  malloc.o ABSOLUTE
    ..\\PICTURE\\bmp.c                       0x00000000   Number         0  bmp.o ABSOLUTE
    ..\\PICTURE\\gif.c                       0x00000000   Number         0  gif.o ABSOLUTE
    ..\\PICTURE\\piclib.c                    0x00000000   Number         0  piclib.o ABSOLUTE
    ..\\PICTURE\\tjpgd.c                     0x00000000   Number         0  tjpgd.o ABSOLUTE
    ..\\SYSTEM\\delay\\delay.c               0x00000000   Number         0  delay.o ABSOLUTE
    ..\\SYSTEM\\sys\\sys.c                   0x00000000   Number         0  sys.o ABSOLUTE
    ..\\SYSTEM\\usart\\usart.c               0x00000000   Number         0  usart.o ABSOLUTE
    ..\\TEXT\\fontupd.c                      0x00000000   Number         0  fontupd.o ABSOLUTE
    ..\\TEXT\\text.c                         0x00000000   Number         0  text.o ABSOLUTE
    ..\\USB\\STM32_USB_HOST_Library\\Class\\MSC\\src\\usbh_msc_bot.c 0x00000000   Number         0  usbh_msc_bot.o ABSOLUTE
    ..\\USB\\STM32_USB_HOST_Library\\Class\\MSC\\src\\usbh_msc_core.c 0x00000000   Number         0  usbh_msc_core.o ABSOLUTE
    ..\\USB\\STM32_USB_HOST_Library\\Class\\MSC\\src\\usbh_msc_scsi.c 0x00000000   Number         0  usbh_msc_scsi.o ABSOLUTE
    ..\\USB\\STM32_USB_HOST_Library\\Core\\src\\usbh_core.c 0x00000000   Number         0  usbh_core.o ABSOLUTE
    ..\\USB\\STM32_USB_HOST_Library\\Core\\src\\usbh_hcs.c 0x00000000   Number         0  usbh_hcs.o ABSOLUTE
    ..\\USB\\STM32_USB_HOST_Library\\Core\\src\\usbh_ioreq.c 0x00000000   Number         0  usbh_ioreq.o ABSOLUTE
    ..\\USB\\STM32_USB_HOST_Library\\Core\\src\\usbh_stdreq.c 0x00000000   Number         0  usbh_stdreq.o ABSOLUTE
    ..\\USB\\STM32_USB_OTG_Driver\\src\\usb_core.c 0x00000000   Number         0  usb_core.o ABSOLUTE
    ..\\USB\\STM32_USB_OTG_Driver\\src\\usb_hcd.c 0x00000000   Number         0  usb_hcd.o ABSOLUTE
    ..\\USB\\STM32_USB_OTG_Driver\\src\\usb_hcd_int.c 0x00000000   Number         0  usb_hcd_int.o ABSOLUTE
    ..\\USB\\USB_APP\\usb_bsp.c              0x00000000   Number         0  usb_bsp.o ABSOLUTE
    ..\\USB\\USB_APP\\usbh_usr.c             0x00000000   Number         0  usbh_usr.o ABSOLUTE
    ..\\USB\\USB_APP\\usbusr.c               0x00000000   Number         0  usbusr.o ABSOLUTE
    ..\\USMART\\usmart.c                     0x00000000   Number         0  usmart.o ABSOLUTE
    ..\\USMART\\usmart_config.c              0x00000000   Number         0  usmart_config.o ABSOLUTE
    ..\\USMART\\usmart_str.c                 0x00000000   Number         0  usmart_str.o ABSOLUTE
    dc.s                                     0x00000000   Number         0  dc.o ABSOLUTE
    startup_stm32f40_41xxx.s                 0x00000000   Number         0  startup_stm32f40_41xxx.o ABSOLUTE
    test.c                                   0x00000000   Number         0  test.o ABSOLUTE
    test.c                                   0x00000000   Number         0  test.o ABSOLUTE
    RESET                                    0x08000000   Section      392  startup_stm32f40_41xxx.o(RESET)
    !!!main                                  0x08000188   Section        8  __main.o(!!!main)
    !!!scatter                               0x08000190   Section       52  __scatter.o(!!!scatter)
    !!dczerorl2                              0x080001c4   Section       90  __dczerorl2.o(!!dczerorl2)
    !!handler_zi                             0x08000220   Section       28  __scatter_zi.o(!!handler_zi)
    .ARM.Collect$$_printf_percent$$00000000  0x0800023c   Section        0  _printf_percent.o(.ARM.Collect$$_printf_percent$$00000000)
    .ARM.Collect$$_printf_percent$$00000009  0x0800023c   Section        6  _printf_d.o(.ARM.Collect$$_printf_percent$$00000009)
    .ARM.Collect$$_printf_percent$$0000000A  0x08000242   Section        6  _printf_u.o(.ARM.Collect$$_printf_percent$$0000000A)
    .ARM.Collect$$_printf_percent$$0000000C  0x08000248   Section        6  _printf_x.o(.ARM.Collect$$_printf_percent$$0000000C)
    .ARM.Collect$$_printf_percent$$00000013  0x0800024e   Section        6  _printf_c.o(.ARM.Collect$$_printf_percent$$00000013)
    .ARM.Collect$$_printf_percent$$00000014  0x08000254   Section        6  _printf_s.o(.ARM.Collect$$_printf_percent$$00000014)
    .ARM.Collect$$_printf_percent$$00000017  0x0800025a   Section        4  _printf_percent_end.o(.ARM.Collect$$_printf_percent$$00000017)
    .ARM.Collect$$libinit$$00000000          0x0800025e   Section        2  libinit.o(.ARM.Collect$$libinit$$00000000)
    .ARM.Collect$$libinit$$00000001          0x08000260   Section        4  libinit2.o(.ARM.Collect$$libinit$$00000001)
    .ARM.Collect$$libinit$$00000008          0x08000264   Section        0  libinit2.o(.ARM.Collect$$libinit$$00000008)
    .ARM.Collect$$libinit$$0000000A          0x08000264   Section        0  libinit2.o(.ARM.Collect$$libinit$$0000000A)
    .ARM.Collect$$libinit$$0000000C          0x08000264   Section        0  libinit2.o(.ARM.Collect$$libinit$$0000000C)
    .ARM.Collect$$libinit$$0000000F          0x08000264   Section        0  libinit2.o(.ARM.Collect$$libinit$$0000000F)
    .ARM.Collect$$libinit$$00000011          0x08000264   Section        0  libinit2.o(.ARM.Collect$$libinit$$00000011)
    .ARM.Collect$$libinit$$00000013          0x08000264   Section        0  libinit2.o(.ARM.Collect$$libinit$$00000013)
    .ARM.Collect$$libinit$$00000015          0x08000264   Section        0  libinit2.o(.ARM.Collect$$libinit$$00000015)
    .ARM.Collect$$libinit$$00000017          0x08000264   Section        0  libinit2.o(.ARM.Collect$$libinit$$00000017)
    .ARM.Collect$$libinit$$00000019          0x08000264   Section        0  libinit2.o(.ARM.Collect$$libinit$$00000019)
    .ARM.Collect$$libinit$$0000001B          0x08000264   Section        0  libinit2.o(.ARM.Collect$$libinit$$0000001B)
    .ARM.Collect$$libinit$$0000001D          0x08000264   Section        0  libinit2.o(.ARM.Collect$$libinit$$0000001D)
    .ARM.Collect$$libinit$$0000001F          0x08000264   Section        0  libinit2.o(.ARM.Collect$$libinit$$0000001F)
    .ARM.Collect$$libinit$$00000021          0x08000264   Section        0  libinit2.o(.ARM.Collect$$libinit$$00000021)
    .ARM.Collect$$libinit$$00000023          0x08000264   Section        0  libinit2.o(.ARM.Collect$$libinit$$00000023)
    .ARM.Collect$$libinit$$0000002A          0x08000264   Section        0  libinit2.o(.ARM.Collect$$libinit$$0000002A)
    .ARM.Collect$$libinit$$0000002C          0x08000264   Section        0  libinit2.o(.ARM.Collect$$libinit$$0000002C)
    .ARM.Collect$$libinit$$0000002E          0x08000264   Section        0  libinit2.o(.ARM.Collect$$libinit$$0000002E)
    .ARM.Collect$$libinit$$00000030          0x08000264   Section        0  libinit2.o(.ARM.Collect$$libinit$$00000030)
    .ARM.Collect$$libinit$$00000031          0x08000264   Section        2  libinit2.o(.ARM.Collect$$libinit$$00000031)
    .ARM.Collect$$libshutdown$$00000000      0x08000266   Section        2  libshutdown.o(.ARM.Collect$$libshutdown$$00000000)
    .ARM.Collect$$libshutdown$$00000003      0x08000268   Section        0  libshutdown2.o(.ARM.Collect$$libshutdown$$00000003)
    .ARM.Collect$$libshutdown$$00000006      0x08000268   Section        0  libshutdown2.o(.ARM.Collect$$libshutdown$$00000006)
    .ARM.Collect$$libshutdown$$00000009      0x08000268   Section        0  libshutdown2.o(.ARM.Collect$$libshutdown$$00000009)
    .ARM.Collect$$libshutdown$$0000000B      0x08000268   Section        0  libshutdown2.o(.ARM.Collect$$libshutdown$$0000000B)
    .ARM.Collect$$libshutdown$$0000000E      0x08000268   Section        0  libshutdown2.o(.ARM.Collect$$libshutdown$$0000000E)
    .ARM.Collect$$libshutdown$$0000000F      0x08000268   Section        2  libshutdown2.o(.ARM.Collect$$libshutdown$$0000000F)
    .ARM.Collect$$rtentry$$00000000          0x0800026a   Section        0  rtentry.o(.ARM.Collect$$rtentry$$00000000)
    .ARM.Collect$$rtentry$$00000002          0x0800026a   Section        0  rtentry2.o(.ARM.Collect$$rtentry$$00000002)
    .ARM.Collect$$rtentry$$00000004          0x0800026a   Section        6  rtentry4.o(.ARM.Collect$$rtentry$$00000004)
    .ARM.Collect$$rtentry$$00000009          0x08000270   Section        0  rtentry2.o(.ARM.Collect$$rtentry$$00000009)
    .ARM.Collect$$rtentry$$0000000A          0x08000270   Section        4  rtentry2.o(.ARM.Collect$$rtentry$$0000000A)
    .ARM.Collect$$rtentry$$0000000C          0x08000274   Section        0  rtentry2.o(.ARM.Collect$$rtentry$$0000000C)
    .ARM.Collect$$rtentry$$0000000D          0x08000274   Section        8  rtentry2.o(.ARM.Collect$$rtentry$$0000000D)
    .ARM.Collect$$rtexit$$00000000           0x0800027c   Section        2  rtexit.o(.ARM.Collect$$rtexit$$00000000)
    .ARM.Collect$$rtexit$$00000002           0x0800027e   Section        0  rtexit2.o(.ARM.Collect$$rtexit$$00000002)
    .ARM.Collect$$rtexit$$00000003           0x0800027e   Section        4  rtexit2.o(.ARM.Collect$$rtexit$$00000003)
    .ARM.Collect$$rtexit$$00000004           0x08000282   Section        6  rtexit2.o(.ARM.Collect$$rtexit$$00000004)
    .emb_text                                0x08000288   Section       16  sys.o(.emb_text)
    $v0                                      0x08000288   Number         0  sys.o(.emb_text)
    .text                                    0x08000298   Section       68  startup_stm32f40_41xxx.o(.text)
    $v0                                      0x08000298   Number         0  startup_stm32f40_41xxx.o(.text)
    .text                                    0x080002dc   Section        2  use_no_semi_2.o(.text)
    .text                                    0x080002de   Section       72  llsdiv.o(.text)
    .text                                    0x08000328   Section        0  noretval__2printf.o(.text)
    .text                                    0x08000340   Section        0  _printf_pad.o(.text)
    .text                                    0x0800038e   Section        0  _printf_str.o(.text)
    .text                                    0x080003e0   Section        0  _printf_dec.o(.text)
    .text                                    0x08000454   Section        0  _printf_hex_int.o(.text)
    .text                                    0x080004ac   Section        0  __printf_flags_ss_wp.o(.text)
    .text                                    0x08000634   Section        0  strcpy.o(.text)
    .text                                    0x0800067c   Section        0  strlen.o(.text)
    .text                                    0x080006ba   Section      138  rt_memcpy_v6.o(.text)
    .text                                    0x08000744   Section      128  strcmpv7m.o(.text)
    .text                                    0x080007c4   Section        0  heapauxi.o(.text)
    .text                                    0x080007ca   Section        2  use_no_semi.o(.text)
    .text                                    0x080007cc   Section      238  lludivv7m.o(.text)
    .text                                    0x080008ba   Section        0  _printf_intcommon.o(.text)
    .text                                    0x0800096c   Section        0  _printf_char.o(.text)
    .text                                    0x08000998   Section        0  _printf_char_file.o(.text)
    .text                                    0x080009bc   Section      100  rt_memcpy_w.o(.text)
    .text                                    0x08000a20   Section        0  _printf_char_common.o(.text)
    _printf_input_char                       0x08000a21   Thumb Code    10  _printf_char_common.o(.text)
    .text                                    0x08000a50   Section        0  ferror.o(.text)
    .text                                    0x08000a58   Section       74  sys_stackheap_outer.o(.text)
    .text                                    0x08000aa2   Section        0  exit.o(.text)
    .text                                    0x08000ab0   Section        8  libspace.o(.text)
    i.CmdError                               0x08000ab8   Section        0  sdio_sdcard.o(i.CmdError)
    i.CmdResp1Error                          0x08000af0   Section        0  sdio_sdcard.o(i.CmdResp1Error)
    i.CmdResp2Error                          0x08000b50   Section        0  sdio_sdcard.o(i.CmdResp2Error)
    i.CmdResp3Error                          0x08000bb8   Section        0  sdio_sdcard.o(i.CmdResp3Error)
    i.CmdResp6Error                          0x08000bf8   Section        0  sdio_sdcard.o(i.CmdResp6Error)
    i.CmdResp7Error                          0x08000c98   Section        0  sdio_sdcard.o(i.CmdResp7Error)
    i.DeInit                                 0x08000cf4   Section        0  usbusr.o(i.DeInit)
    i.FindSCR                                0x08000d4c   Section        0  sdio_sdcard.o(i.FindSCR)
    i.GPIO_AF_Set                            0x08000ea8   Section        0  sys.o(i.GPIO_AF_Set)
    i.GPIO_Set                               0x08000ee8   Section        0  sys.o(i.GPIO_Set)
    i.Get_HzMat                              0x08000fc8   Section        0  text.o(i.Get_HzMat)
    i.HCD_GetCurrentFrame                    0x080010a8   Section        0  usb_hcd.o(i.HCD_GetCurrentFrame)
    i.HCD_GetCurrentSpeed                    0x080010b2   Section        0  usb_hcd.o(i.HCD_GetCurrentSpeed)
    i.HCD_GetURB_State                       0x080010c6   Section        0  usb_hcd.o(i.HCD_GetURB_State)
    i.HCD_GetXferCnt                         0x080010d0   Section        0  usb_hcd.o(i.HCD_GetXferCnt)
    i.HCD_Init                               0x080010dc   Section        0  usb_hcd.o(i.HCD_Init)
    i.HCD_IsDeviceConnected                  0x0800113c   Section        0  usb_hcd.o(i.HCD_IsDeviceConnected)
    i.HCD_ResetPort                          0x08001144   Section        0  usb_hcd.o(i.HCD_ResetPort)
    i.HCD_SubmitRequest                      0x08001152   Section        0  usb_hcd.o(i.HCD_SubmitRequest)
    i.Init                                   0x08001174   Section        0  usbusr.o(i.Init)
    i.IsCardProgramming                      0x08001280   Section        0  sdio_sdcard.o(i.IsCardProgramming)
    i.KEY_Init                               0x0800131c   Section        0  key.o(i.KEY_Init)
    i.LCD_BGR2RGB                            0x0800136c   Section        0  ili93xx.o(i.LCD_BGR2RGB)
    i.LCD_Clear                              0x08001388   Section        0  ili93xx.o(i.LCD_Clear)
    i.LCD_Color_Fill                         0x080013f4   Section        0  ili93xx.o(i.LCD_Color_Fill)
    i.LCD_Display_Dir                        0x08001454   Section        0  ili93xx.o(i.LCD_Display_Dir)
    i.LCD_Fast_DrawPoint                     0x080015c4   Section        0  ili93xx.o(i.LCD_Fast_DrawPoint)
    i.LCD_Fill                               0x080016e4   Section        0  ili93xx.o(i.LCD_Fill)
    i.LCD_Init                               0x0800179c   Section        0  ili93xx.o(i.LCD_Init)
    i.LCD_Pow                                0x08004ef0   Section        0  ili93xx.o(i.LCD_Pow)
    i.LCD_RD_DATA                            0x08004f08   Section        0  ili93xx.o(i.LCD_RD_DATA)
    i.LCD_ReadPoint                          0x08004f1c   Section        0  ili93xx.o(i.LCD_ReadPoint)
    i.LCD_ReadReg                            0x08005084   Section        0  ili93xx.o(i.LCD_ReadReg)
    i.LCD_Scan_Dir                           0x0800509c   Section        0  ili93xx.o(i.LCD_Scan_Dir)
    i.LCD_SetCursor                          0x08005348   Section        0  ili93xx.o(i.LCD_SetCursor)
    i.LCD_ShowChar                           0x08005454   Section        0  ili93xx.o(i.LCD_ShowChar)
    i.LCD_ShowNum                            0x0800557c   Section        0  ili93xx.o(i.LCD_ShowNum)
    i.LCD_ShowString                         0x08005610   Section        0  ili93xx.o(i.LCD_ShowString)
    i.LCD_WR_DATA                            0x08005678   Section        0  ili93xx.o(i.LCD_WR_DATA)
    i.LCD_WR_REG                             0x08005690   Section        0  ili93xx.o(i.LCD_WR_REG)
    i.LCD_WriteRAM_Prepare                   0x080056a8   Section        0  ili93xx.o(i.LCD_WriteRAM_Prepare)
    i.LCD_WriteReg                           0x080056bc   Section        0  ili93xx.o(i.LCD_WriteReg)
    i.LED_Init                               0x080056d8   Section        0  led.o(i.LED_Init)
    i.MY_NVIC_Init                           0x08005718   Section        0  sys.o(i.MY_NVIC_Init)
    i.MY_NVIC_PriorityGroupConfig            0x08005790   Section        0  sys.o(i.MY_NVIC_PriorityGroupConfig)
    i.MY_NVIC_SetVectorTable                 0x080057b8   Section        0  sys.o(i.MY_NVIC_SetVectorTable)
    i.My_Config                              0x080057c8   Section        0  usbusr.o(i.My_Config)
    i.My_Machine                             0x08005a60   Section        0  usbusr.o(i.My_Machine)
    i.OTG_FS_IRQHandler                      0x08005da8   Section        0  usbh_usr.o(i.OTG_FS_IRQHandler)
    i.Requests                               0x08005db8   Section        0  usbusr.o(i.Requests)
    i.SDEnWideBus                            0x08005dc0   Section        0  sdio_sdcard.o(i.SDEnWideBus)
    i.SDIO_Clock_Set                         0x08005e40   Section        0  sdio_sdcard.o(i.SDIO_Clock_Set)
    i.SDIO_IRQHandler                        0x08005e54   Section        0  sdio_sdcard.o(i.SDIO_IRQHandler)
    i.SDIO_Send_Cmd                          0x08005e5c   Section        0  sdio_sdcard.o(i.SDIO_Send_Cmd)
    i.SDIO_Send_Data_Cfg                     0x08005e88   Section        0  sdio_sdcard.o(i.SDIO_Send_Data_Cfg)
    i.SD_DMA_Config                          0x08005ec0   Section        0  sdio_sdcard.o(i.SD_DMA_Config)
    i.SD_EnableWideBusOperation              0x08005f54   Section        0  sdio_sdcard.o(i.SD_EnableWideBusOperation)
    i.SD_GetCardInfo                         0x08005fbc   Section        0  sdio_sdcard.o(i.SD_GetCardInfo)
    i.SD_Init                                0x080062d0   Section        0  sdio_sdcard.o(i.SD_Init)
    i.SD_InitializeCards                     0x08006448   Section        0  sdio_sdcard.o(i.SD_InitializeCards)
    i.SD_PowerON                             0x0800655c   Section        0  sdio_sdcard.o(i.SD_PowerON)
    i.SD_ProcessIRQSrc                       0x080066dc   Section        0  sdio_sdcard.o(i.SD_ProcessIRQSrc)
    i.SD_ReadBlock                           0x08006848   Section        0  sdio_sdcard.o(i.SD_ReadBlock)
    i.SD_ReadDisk                            0x08006a94   Section        0  sdio_sdcard.o(i.SD_ReadDisk)
    i.SD_ReadMultiBlocks                     0x08006b34   Section        0  sdio_sdcard.o(i.SD_ReadMultiBlocks)
    i.SD_SelectDeselect                      0x08006df8   Section        0  sdio_sdcard.o(i.SD_SelectDeselect)
    i.SD_SetDeviceMode                       0x08006e10   Section        0  sdio_sdcard.o(i.SD_SetDeviceMode)
    i.SD_WriteBlock                          0x08006e28   Section        0  sdio_sdcard.o(i.SD_WriteBlock)
    i.SD_WriteDisk                           0x0800716c   Section        0  sdio_sdcard.o(i.SD_WriteDisk)
    i.SD_WriteMultiBlocks                    0x0800720c   Section        0  sdio_sdcard.o(i.SD_WriteMultiBlocks)
    i.SPI1_Init                              0x08007588   Section        0  spi.o(i.SPI1_Init)
    i.SPI1_ReadWriteByte                     0x08007638   Section        0  spi.o(i.SPI1_ReadWriteByte)
    i.SPI1_SetSpeed                          0x08007668   Section        0  spi.o(i.SPI1_SetSpeed)
    i.Show_Font                              0x08007694   Section        0  text.o(i.Show_Font)
    i.Show_Str                               0x0800775c   Section        0  text.o(i.Show_Str)
    i.Stm32_Clock_Init                       0x08007820   Section        0  sys.o(i.Stm32_Clock_Init)
    i.Sys_Clock_Set                          0x08007888   Section        0  sys.o(i.Sys_Clock_Set)
    i.TIM4_IRQHandler                        0x08007994   Section        0  usmart.o(i.TIM4_IRQHandler)
    i.Timer4_Init                            0x080079d0   Section        0  usmart.o(i.Timer4_Init)
    i.USART1_IRQHandler                      0x08007a20   Section        0  usart.o(i.USART1_IRQHandler)
    i.USBH_Alloc_Channel                     0x08007aa0   Section        0  usbh_hcs.o(i.USBH_Alloc_Channel)
    i.USBH_BulkReceiveData                   0x08007ac6   Section        0  usbh_ioreq.o(i.USBH_BulkReceiveData)
    i.USBH_BulkSendData                      0x08007b26   Section        0  usbh_ioreq.o(i.USBH_BulkSendData)
    i.USBH_ClrFeature                        0x08007b84   Section        0  usbh_stdreq.o(i.USBH_ClrFeature)
    i.USBH_Connected                         0x08007bd0   Section        0  usbh_core.o(i.USBH_Connected)
    i.USBH_CtlReceiveData                    0x08007bdc   Section        0  usbh_ioreq.o(i.USBH_CtlReceiveData)
    i.USBH_CtlReq                            0x08007c22   Section        0  usbh_ioreq.o(i.USBH_CtlReq)
    i.USBH_CtlSendData                       0x08007c86   Section        0  usbh_ioreq.o(i.USBH_CtlSendData)
    i.USBH_CtlSendSetup                      0x08007cf4   Section        0  usbh_ioreq.o(i.USBH_CtlSendSetup)
    i.USBH_DeAllocate_AllChannel             0x08007d36   Section        0  usbh_hcs.o(i.USBH_DeAllocate_AllChannel)
    i.USBH_DeInit                            0x08007d52   Section        0  usbh_core.o(i.USBH_DeInit)
    i.USBH_Disconnected                      0x08007d8c   Section        0  usbh_core.o(i.USBH_Disconnected)
    i.USBH_ErrorHandle                       0x08007d98   Section        0  usbh_core.o(i.USBH_ErrorHandle)
    i.USBH_Free_Channel                      0x08007dc6   Section        0  usbh_hcs.o(i.USBH_Free_Channel)
    i.USBH_GetDescriptor                     0x08007de4   Section        0  usbh_stdreq.o(i.USBH_GetDescriptor)
    i.USBH_GetFreeChannel                    0x08007e28   Section        0  usbh_hcs.o(i.USBH_GetFreeChannel)
    USBH_GetFreeChannel                      0x08007e29   Thumb Code    40  usbh_hcs.o(i.USBH_GetFreeChannel)
    i.USBH_GetNextDesc                       0x08007e50   Section        0  usbh_stdreq.o(i.USBH_GetNextDesc)
    i.USBH_Get_CfgDesc                       0x08007e64   Section        0  usbh_stdreq.o(i.USBH_Get_CfgDesc)
    i.USBH_Get_DevDesc                       0x08007ec0   Section        0  usbh_stdreq.o(i.USBH_Get_DevDesc)
    i.USBH_Get_StringDesc                    0x08007ef8   Section        0  usbh_stdreq.o(i.USBH_Get_StringDesc)
    i.USBH_HandleControl                     0x08007f34   Section        0  usbh_core.o(i.USBH_HandleControl)
    i.USBH_HandleEnum                        0x08008158   Section        0  usbh_core.o(i.USBH_HandleEnum)
    USBH_HandleEnum                          0x08008159   Thumb Code   570  usbh_core.o(i.USBH_HandleEnum)
    i.USBH_Init                              0x08008398   Section        0  usbh_core.o(i.USBH_Init)
    i.USBH_MSC_BOTReset                      0x080083dc   Section        0  usbh_msc_core.o(i.USBH_MSC_BOTReset)
    USBH_MSC_BOTReset                        0x080083dd   Thumb Code    36  usbh_msc_core.o(i.USBH_MSC_BOTReset)
    i.USBH_MSC_BOT_Abort                     0x08008400   Section        0  usbh_msc_bot.o(i.USBH_MSC_BOT_Abort)
    i.USBH_MSC_ClassRequest                  0x08008460   Section        0  usbh_msc_core.o(i.USBH_MSC_ClassRequest)
    USBH_MSC_ClassRequest                    0x08008461   Thumb Code    14  usbh_msc_core.o(i.USBH_MSC_ClassRequest)
    i.USBH_MSC_DecodeCSW                     0x08008474   Section        0  usbh_msc_bot.o(i.USBH_MSC_DecodeCSW)
    i.USBH_MSC_ErrorHandle                   0x080084f4   Section        0  usbh_msc_core.o(i.USBH_MSC_ErrorHandle)
    i.USBH_MSC_GETMaxLUN                     0x08008538   Section        0  usbh_msc_core.o(i.USBH_MSC_GETMaxLUN)
    USBH_MSC_GETMaxLUN                       0x08008539   Thumb Code    38  usbh_msc_core.o(i.USBH_MSC_GETMaxLUN)
    i.USBH_MSC_Handle                        0x08008564   Section        0  usbh_msc_core.o(i.USBH_MSC_Handle)
    USBH_MSC_Handle                          0x08008565   Thumb Code   470  usbh_msc_core.o(i.USBH_MSC_Handle)
    i.USBH_MSC_HandleBOTXfer                 0x08008788   Section        0  usbh_msc_bot.o(i.USBH_MSC_HandleBOTXfer)
    i.USBH_MSC_Init                          0x08008ad8   Section        0  usbh_msc_bot.o(i.USBH_MSC_Init)
    i.USBH_MSC_InterfaceDeInit               0x08008b1c   Section        0  usbh_msc_core.o(i.USBH_MSC_InterfaceDeInit)
    USBH_MSC_InterfaceDeInit                 0x08008b1d   Thumb Code    72  usbh_msc_core.o(i.USBH_MSC_InterfaceDeInit)
    i.USBH_MSC_InterfaceInit                 0x08008b68   Section        0  usbh_msc_core.o(i.USBH_MSC_InterfaceInit)
    USBH_MSC_InterfaceInit                   0x08008b69   Thumb Code   282  usbh_msc_core.o(i.USBH_MSC_InterfaceInit)
    i.USBH_MSC_ModeSense6                    0x08008e1c   Section        0  usbh_msc_scsi.o(i.USBH_MSC_ModeSense6)
    i.USBH_MSC_Read10                        0x08008f1c   Section        0  usbh_msc_scsi.o(i.USBH_MSC_Read10)
    i.USBH_MSC_ReadCapacity10                0x0800901c   Section        0  usbh_msc_scsi.o(i.USBH_MSC_ReadCapacity10)
    i.USBH_MSC_RequestSense                  0x080090f8   Section        0  usbh_msc_scsi.o(i.USBH_MSC_RequestSense)
    i.USBH_MSC_TestUnitReady                 0x080091d8   Section        0  usbh_msc_scsi.o(i.USBH_MSC_TestUnitReady)
    i.USBH_MSC_Write10                       0x08009288   Section        0  usbh_msc_scsi.o(i.USBH_MSC_Write10)
    i.USBH_Modify_Channel                    0x0800936c   Section        0  usbh_hcs.o(i.USBH_Modify_Channel)
    i.USBH_OTG_ISR_Handler                   0x080093d0   Section        0  usb_hcd_int.o(i.USBH_OTG_ISR_Handler)
    i.USBH_Open_Channel                      0x08009478   Section        0  usbh_hcs.o(i.USBH_Open_Channel)
    i.USBH_ParseCfgDesc                      0x08009514   Section        0  usbh_stdreq.o(i.USBH_ParseCfgDesc)
    USBH_ParseCfgDesc                        0x08009515   Thumb Code   274  usbh_stdreq.o(i.USBH_ParseCfgDesc)
    i.USBH_ParseDevDesc                      0x08009630   Section        0  usbh_stdreq.o(i.USBH_ParseDevDesc)
    USBH_ParseDevDesc                        0x08009631   Thumb Code    88  usbh_stdreq.o(i.USBH_ParseDevDesc)
    i.USBH_ParseEPDesc                       0x08009688   Section        0  usbh_stdreq.o(i.USBH_ParseEPDesc)
    USBH_ParseEPDesc                         0x08009689   Thumb Code    32  usbh_stdreq.o(i.USBH_ParseEPDesc)
    i.USBH_ParseInterfaceDesc                0x080096a8   Section        0  usbh_stdreq.o(i.USBH_ParseInterfaceDesc)
    USBH_ParseInterfaceDesc                  0x080096a9   Thumb Code    38  usbh_stdreq.o(i.USBH_ParseInterfaceDesc)
    i.USBH_ParseStringDesc                   0x080096ce   Section        0  usbh_stdreq.o(i.USBH_ParseStringDesc)
    USBH_ParseStringDesc                     0x080096cf   Thumb Code    54  usbh_stdreq.o(i.USBH_ParseStringDesc)
    i.USBH_Process                           0x08009704   Section        0  usbh_core.o(i.USBH_Process)
    i.USBH_SOF                               0x0800989c   Section        0  usbh_core.o(i.USBH_SOF)
    i.USBH_SetAddress                        0x080098a2   Section        0  usbh_stdreq.o(i.USBH_SetAddress)
    i.USBH_SetCfg                            0x080098c8   Section        0  usbh_stdreq.o(i.USBH_SetCfg)
    i.USBH_SubmitSetupRequest                0x080098ee   Section        0  usbh_ioreq.o(i.USBH_SubmitSetupRequest)
    USBH_SubmitSetupRequest                  0x080098ef   Thumb Code    24  usbh_ioreq.o(i.USBH_SubmitSetupRequest)
    i.USBH_UDISK_Read                        0x08009908   Section        0  usbh_usr.o(i.USBH_UDISK_Read)
    i.USBH_UDISK_Status                      0x08009968   Section        0  usbh_usr.o(i.USBH_UDISK_Status)
    i.USBH_UDISK_Write                       0x08009978   Section        0  usbh_usr.o(i.USBH_UDISK_Write)
    i.USBH_USR_Configuration_DescAvailable   0x080099d8   Section        0  usbh_usr.o(i.USBH_USR_Configuration_DescAvailable)
    i.USBH_USR_DeInit                        0x08009a40   Section        0  usbh_usr.o(i.USBH_USR_DeInit)
    i.USBH_USR_DeviceAddressAssigned         0x08009a4c   Section        0  usbh_usr.o(i.USBH_USR_DeviceAddressAssigned)
    i.USBH_USR_DeviceAttached                0x08009a6c   Section        0  usbh_usr.o(i.USBH_USR_DeviceAttached)
    i.USBH_USR_DeviceDisconnected            0x08009a98   Section        0  usbh_usr.o(i.USBH_USR_DeviceDisconnected)
    i.USBH_USR_DeviceNotSupported            0x08009abc   Section        0  usbh_usr.o(i.USBH_USR_DeviceNotSupported)
    i.USBH_USR_DeviceSpeedDetected           0x08009ae0   Section        0  usbh_usr.o(i.USBH_USR_DeviceSpeedDetected)
    i.USBH_USR_Device_DescAvailable          0x08009b58   Section        0  usbh_usr.o(i.USBH_USR_Device_DescAvailable)
    i.USBH_USR_EnumerationDone               0x08009b90   Section        0  usbh_usr.o(i.USBH_USR_EnumerationDone)
    i.USBH_USR_Init                          0x08009bb0   Section        0  usbh_usr.o(i.USBH_USR_Init)
    i.USBH_USR_MSC_Application               0x08009c20   Section        0  usbh_usr.o(i.USBH_USR_MSC_Application)
    i.USBH_USR_Manufacturer_String           0x08009c74   Section        0  usbh_usr.o(i.USBH_USR_Manufacturer_String)
    i.USBH_USR_OverCurrentDetected           0x08009c98   Section        0  usbh_usr.o(i.USBH_USR_OverCurrentDetected)
    i.USBH_USR_Product_String                0x08009cb8   Section        0  usbh_usr.o(i.USBH_USR_Product_String)
    i.USBH_USR_ResetDevice                   0x08009cd8   Section        0  usbh_usr.o(i.USBH_USR_ResetDevice)
    i.USBH_USR_SerialNum_String              0x08009cf4   Section        0  usbh_usr.o(i.USBH_USR_SerialNum_String)
    i.USBH_USR_UnrecoveredError              0x08009d18   Section        0  usbh_usr.o(i.USBH_USR_UnrecoveredError)
    i.USBH_USR_UserInput                     0x08009d3c   Section        0  usbh_usr.o(i.USBH_USR_UserInput)
    i.USB_OTG_BSP_ConfigVBUS                 0x08009d5c   Section        0  usb_bsp.o(i.USB_OTG_BSP_ConfigVBUS)
    i.USB_OTG_BSP_DriveVBUS                  0x08009d5e   Section        0  usb_bsp.o(i.USB_OTG_BSP_DriveVBUS)
    i.USB_OTG_BSP_EnableInterrupt            0x08009d60   Section        0  usb_bsp.o(i.USB_OTG_BSP_EnableInterrupt)
    i.USB_OTG_BSP_Init                       0x08009d74   Section        0  usb_bsp.o(i.USB_OTG_BSP_Init)
    i.USB_OTG_BSP_mDelay                     0x08009de0   Section        0  usb_bsp.o(i.USB_OTG_BSP_mDelay)
    i.USB_OTG_BSP_uDelay                     0x08009dec   Section        0  usb_bsp.o(i.USB_OTG_BSP_uDelay)
    i.USB_OTG_CoreInit                       0x08009df8   Section        0  usb_core.o(i.USB_OTG_CoreInit)
    i.USB_OTG_CoreInitHost                   0x08009f1e   Section        0  usb_core.o(i.USB_OTG_CoreInitHost)
    i.USB_OTG_CoreReset                      0x08009ff4   Section        0  usb_core.o(i.USB_OTG_CoreReset)
    USB_OTG_CoreReset                        0x08009ff5   Thumb Code   108  usb_core.o(i.USB_OTG_CoreReset)
    i.USB_OTG_DisableGlobalInt               0x0800a064   Section        0  usb_core.o(i.USB_OTG_DisableGlobalInt)
    i.USB_OTG_DriveVbus                      0x0800a086   Section        0  usb_core.o(i.USB_OTG_DriveVbus)
    i.USB_OTG_EnableCommonInt                0x0800a0e2   Section        0  usb_core.o(i.USB_OTG_EnableCommonInt)
    USB_OTG_EnableCommonInt                  0x0800a0e3   Thumb Code    52  usb_core.o(i.USB_OTG_EnableCommonInt)
    i.USB_OTG_EnableGlobalInt                0x0800a116   Section        0  usb_core.o(i.USB_OTG_EnableGlobalInt)
    i.USB_OTG_EnableHostInt                  0x0800a138   Section        0  usb_core.o(i.USB_OTG_EnableHostInt)
    i.USB_OTG_FlushRxFifo                    0x0800a1ac   Section        0  usb_core.o(i.USB_OTG_FlushRxFifo)
    i.USB_OTG_FlushTxFifo                    0x0800a1f8   Section        0  usb_core.o(i.USB_OTG_FlushTxFifo)
    i.USB_OTG_GetMode                        0x0800a24c   Section        0  usb_core.o(i.USB_OTG_GetMode)
    i.USB_OTG_HC_DoPing                      0x0800a258   Section        0  usb_core.o(i.USB_OTG_HC_DoPing)
    i.USB_OTG_HC_Halt                        0x0800a2b2   Section        0  usb_core.o(i.USB_OTG_HC_Halt)
    i.USB_OTG_HC_Init                        0x0800a334   Section        0  usb_core.o(i.USB_OTG_HC_Init)
    i.USB_OTG_HC_StartXfer                   0x0800a56c   Section        0  usb_core.o(i.USB_OTG_HC_StartXfer)
    i.USB_OTG_InitFSLSPClkSel                0x0800a762   Section        0  usb_core.o(i.USB_OTG_InitFSLSPClkSel)
    i.USB_OTG_IsEvenFrame                    0x0800a77a   Section        0  usb_core.o(i.USB_OTG_IsEvenFrame)
    i.USB_OTG_IsHostMode                     0x0800a78a   Section        0  usb_core.o(i.USB_OTG_IsHostMode)
    i.USB_OTG_ReadCoreItr                    0x0800a79e   Section        0  usb_core.o(i.USB_OTG_ReadCoreItr)
    i.USB_OTG_ReadHPRT0                      0x0800a7ae   Section        0  usb_core.o(i.USB_OTG_ReadHPRT0)
    i.USB_OTG_ReadHostAllChannels_intr       0x0800a7de   Section        0  usb_core.o(i.USB_OTG_ReadHostAllChannels_intr)
    i.USB_OTG_ReadPacket                     0x0800a7e6   Section        0  usb_core.o(i.USB_OTG_ReadPacket)
    i.USB_OTG_ResetPort                      0x0800a80e   Section        0  usb_core.o(i.USB_OTG_ResetPort)
    i.USB_OTG_SelectCore                     0x0800a850   Section        0  usb_core.o(i.USB_OTG_SelectCore)
    i.USB_OTG_SetCurrentMode                 0x0800a920   Section        0  usb_core.o(i.USB_OTG_SetCurrentMode)
    i.USB_OTG_USBH_handle_Disconnect_ISR     0x0800a970   Section        0  usb_hcd_int.o(i.USB_OTG_USBH_handle_Disconnect_ISR)
    USB_OTG_USBH_handle_Disconnect_ISR       0x0800a971   Thumb Code    40  usb_hcd_int.o(i.USB_OTG_USBH_handle_Disconnect_ISR)
    i.USB_OTG_USBH_handle_IncompletePeriodicXfer_ISR 0x0800a99c   Section        0  usb_hcd_int.o(i.USB_OTG_USBH_handle_IncompletePeriodicXfer_ISR)
    USB_OTG_USBH_handle_IncompletePeriodicXfer_ISR 0x0800a99d   Thumb Code    70  usb_hcd_int.o(i.USB_OTG_USBH_handle_IncompletePeriodicXfer_ISR)
    i.USB_OTG_USBH_handle_hc_ISR             0x0800a9e2   Section        0  usb_hcd_int.o(i.USB_OTG_USBH_handle_hc_ISR)
    USB_OTG_USBH_handle_hc_ISR               0x0800a9e3   Thumb Code    86  usb_hcd_int.o(i.USB_OTG_USBH_handle_hc_ISR)
    i.USB_OTG_USBH_handle_hc_n_In_ISR        0x0800aa38   Section        0  usb_hcd_int.o(i.USB_OTG_USBH_handle_hc_n_In_ISR)
    USB_OTG_USBH_handle_hc_n_In_ISR          0x0800aa39   Thumb Code  1066  usb_hcd_int.o(i.USB_OTG_USBH_handle_hc_n_In_ISR)
    i.USB_OTG_USBH_handle_hc_n_Out_ISR       0x0800ae64   Section        0  usb_hcd_int.o(i.USB_OTG_USBH_handle_hc_n_Out_ISR)
    USB_OTG_USBH_handle_hc_n_Out_ISR         0x0800ae65   Thumb Code   984  usb_hcd_int.o(i.USB_OTG_USBH_handle_hc_n_Out_ISR)
    i.USB_OTG_USBH_handle_nptxfempty_ISR     0x0800b244   Section        0  usb_hcd_int.o(i.USB_OTG_USBH_handle_nptxfempty_ISR)
    USB_OTG_USBH_handle_nptxfempty_ISR       0x0800b245   Thumb Code   302  usb_hcd_int.o(i.USB_OTG_USBH_handle_nptxfempty_ISR)
    i.USB_OTG_USBH_handle_port_ISR           0x0800b374   Section        0  usb_hcd_int.o(i.USB_OTG_USBH_handle_port_ISR)
    USB_OTG_USBH_handle_port_ISR             0x0800b375   Thumb Code   282  usb_hcd_int.o(i.USB_OTG_USBH_handle_port_ISR)
    i.USB_OTG_USBH_handle_ptxfempty_ISR      0x0800b494   Section        0  usb_hcd_int.o(i.USB_OTG_USBH_handle_ptxfempty_ISR)
    USB_OTG_USBH_handle_ptxfempty_ISR        0x0800b495   Thumb Code   302  usb_hcd_int.o(i.USB_OTG_USBH_handle_ptxfempty_ISR)
    i.USB_OTG_USBH_handle_rx_qlvl_ISR        0x0800b5c2   Section        0  usb_hcd_int.o(i.USB_OTG_USBH_handle_rx_qlvl_ISR)
    USB_OTG_USBH_handle_rx_qlvl_ISR          0x0800b5c3   Thumb Code   356  usb_hcd_int.o(i.USB_OTG_USBH_handle_rx_qlvl_ISR)
    i.USB_OTG_USBH_handle_sof_ISR            0x0800b728   Section        0  usb_hcd_int.o(i.USB_OTG_USBH_handle_sof_ISR)
    USB_OTG_USBH_handle_sof_ISR              0x0800b729   Thumb Code    38  usb_hcd_int.o(i.USB_OTG_USBH_handle_sof_ISR)
    i.USB_OTG_WritePacket                    0x0800b754   Section        0  usb_core.o(i.USB_OTG_WritePacket)
    i.USH_User_App                           0x0800b794   Section        0  test.o(i.USH_User_App)
    i.W25QXX_Erase_Sector                    0x0800b91c   Section        0  w25qxx.o(i.W25QXX_Erase_Sector)
    i.W25QXX_Init                            0x0800b974   Section        0  w25qxx.o(i.W25QXX_Init)
    i.W25QXX_Read                            0x0800b9f4   Section        0  w25qxx.o(i.W25QXX_Read)
    i.W25QXX_ReadID                          0x0800ba44   Section        0  w25qxx.o(i.W25QXX_ReadID)
    i.W25QXX_ReadSR                          0x0800ba8c   Section        0  w25qxx.o(i.W25QXX_ReadSR)
    i.W25QXX_Wait_Busy                       0x0800bab8   Section        0  w25qxx.o(i.W25QXX_Wait_Busy)
    i.W25QXX_Write                           0x0800bacc   Section        0  w25qxx.o(i.W25QXX_Write)
    i.W25QXX_Write_Enable                    0x0800bb84   Section        0  w25qxx.o(i.W25QXX_Write_Enable)
    i.W25QXX_Write_NoCheck                   0x0800bba4   Section        0  w25qxx.o(i.W25QXX_Write_NoCheck)
    i.W25QXX_Write_Page                      0x0800bbec   Section        0  w25qxx.o(i.W25QXX_Write_Page)
    i._is_digit                              0x0800bc40   Section        0  __printf_wp.o(i._is_digit)
    i._sys_exit                              0x0800bc4e   Section        0  usart.o(i._sys_exit)
    i.ai_draw_init                           0x0800bc54   Section        0  piclib.o(i.ai_draw_init)
    i.ai_load_picfile                        0x0800bd34   Section        0  piclib.o(i.ai_load_picfile)
    i.alloc_pool                             0x0800be04   Section        0  tjpgd.o(i.alloc_pool)
    alloc_pool                               0x0800be05   Thumb Code    30  tjpgd.o(i.alloc_pool)
    i.bitext                                 0x0800be22   Section        0  tjpgd.o(i.bitext)
    bitext                                   0x0800be23   Thumb Code   144  tjpgd.o(i.bitext)
    i.block_idct                             0x0800beb4   Section        0  tjpgd.o(i.block_idct)
    block_idct                               0x0800beb5   Thumb Code   676  tjpgd.o(i.block_idct)
    i.char_upper                             0x0800c15c   Section        0  exfuns.o(i.char_upper)
    i.check_fs                               0x0800c178   Section        0  ff.o(i.check_fs)
    check_fs                                 0x0800c179   Thumb Code   140  ff.o(i.check_fs)
    i.chk_chr                                0x0800c208   Section        0  ff.o(i.chk_chr)
    chk_chr                                  0x0800c209   Thumb Code    20  ff.o(i.chk_chr)
    i.clmt_clust                             0x0800c21c   Section        0  ff.o(i.clmt_clust)
    clmt_clust                               0x0800c21d   Thumb Code    50  ff.o(i.clmt_clust)
    i.clust2sect                             0x0800c24e   Section        0  ff.o(i.clust2sect)
    i.cmp_lfn                                0x0800c268   Section        0  ff.o(i.cmp_lfn)
    cmp_lfn                                  0x0800c269   Thumb Code   138  ff.o(i.cmp_lfn)
    i.convert_from_bytes_to_power_of_two     0x0800c2f8   Section        0  sdio_sdcard.o(i.convert_from_bytes_to_power_of_two)
    i.create_chain                           0x0800c30a   Section        0  ff.o(i.create_chain)
    create_chain                             0x0800c30b   Thumb Code   214  ff.o(i.create_chain)
    i.create_huffman_tbl                     0x0800c3e0   Section        0  tjpgd.o(i.create_huffman_tbl)
    create_huffman_tbl                       0x0800c3e1   Thumb Code   308  tjpgd.o(i.create_huffman_tbl)
    i.create_name                            0x0800c514   Section        0  ff.o(i.create_name)
    create_name                              0x0800c515   Thumb Code   604  ff.o(i.create_name)
    i.create_qt_tbl                          0x0800c784   Section        0  tjpgd.o(i.create_qt_tbl)
    create_qt_tbl                            0x0800c785   Thumb Code   108  tjpgd.o(i.create_qt_tbl)
    i.delay_init                             0x0800c7f8   Section        0  delay.o(i.delay_init)
    i.delay_ms                               0x0800c838   Section        0  delay.o(i.delay_ms)
    i.delay_us                               0x0800c870   Section        0  delay.o(i.delay_us)
    i.delay_xms                              0x0800c8b4   Section        0  delay.o(i.delay_xms)
    i.dir_alloc                              0x0800c8f0   Section        0  ff.o(i.dir_alloc)
    dir_alloc                                0x0800c8f1   Thumb Code    92  ff.o(i.dir_alloc)
    i.dir_find                               0x0800c94c   Section        0  ff.o(i.dir_find)
    dir_find                                 0x0800c94d   Thumb Code   234  ff.o(i.dir_find)
    i.dir_next                               0x0800ca36   Section        0  ff.o(i.dir_next)
    dir_next                                 0x0800ca37   Thumb Code   272  ff.o(i.dir_next)
    i.dir_read                               0x0800cb46   Section        0  ff.o(i.dir_read)
    dir_read                                 0x0800cb47   Thumb Code   196  ff.o(i.dir_read)
    i.dir_register                           0x0800cc0a   Section        0  ff.o(i.dir_register)
    dir_register                             0x0800cc0b   Thumb Code   298  ff.o(i.dir_register)
    i.dir_remove                             0x0800cd34   Section        0  ff.o(i.dir_remove)
    dir_remove                               0x0800cd35   Thumb Code   106  ff.o(i.dir_remove)
    i.dir_sdi                                0x0800cd9e   Section        0  ff.o(i.dir_sdi)
    i.disk_initialize                        0x0800ce3c   Section        0  diskio.o(i.disk_initialize)
    i.disk_ioctl                             0x0800ce88   Section        0  diskio.o(i.disk_ioctl)
    i.disk_read                              0x0800cf84   Section        0  diskio.o(i.disk_read)
    i.disk_status                            0x0800d010   Section        0  diskio.o(i.disk_status)
    i.disk_write                             0x0800d016   Section        0  diskio.o(i.disk_write)
    i.exf_getfree                            0x0800d0a2   Section        0  exfuns.o(i.exf_getfree)
    i.exfuns_init                            0x0800d0ec   Section        0  exfuns.o(i.exfuns_init)
    i.f_close                                0x0800d170   Section        0  ff.o(i.f_close)
    i.f_closedir                             0x0800d194   Section        0  ff.o(i.f_closedir)
    i.f_getfree                              0x0800d1aa   Section        0  ff.o(i.f_getfree)
    i.f_getlabel                             0x0800d2ac   Section        0  ff.o(i.f_getlabel)
    i.f_gets                                 0x0800d36a   Section        0  ff.o(i.f_gets)
    i.f_lseek                                0x0800d3bc   Section        0  ff.o(i.f_lseek)
    i.f_mkdir                                0x0800d64a   Section        0  ff.o(i.f_mkdir)
    i.f_mkfs                                 0x0800d7c8   Section        0  ff.o(i.f_mkfs)
    i.f_mount                                0x0800de08   Section        0  ff.o(i.f_mount)
    i.f_open                                 0x0800de64   Section        0  ff.o(i.f_open)
    i.f_opendir                              0x0800dfe4   Section        0  ff.o(i.f_opendir)
    i.f_putc                                 0x0800e06c   Section        0  ff.o(i.f_putc)
    i.f_puts                                 0x0800e0ac   Section        0  ff.o(i.f_puts)
    i.f_read                                 0x0800e0f6   Section        0  ff.o(i.f_read)
    i.f_readdir                              0x0800e2a6   Section        0  ff.o(i.f_readdir)
    i.f_rename                               0x0800e318   Section        0  ff.o(i.f_rename)
    i.f_setlabel                             0x0800e454   Section        0  ff.o(i.f_setlabel)
    i.f_sync                                 0x0800e63c   Section        0  ff.o(i.f_sync)
    i.f_typetell                             0x0800e6ec   Section        0  exfuns.o(i.f_typetell)
    i.f_unlink                               0x0800e79c   Section        0  ff.o(i.f_unlink)
    i.f_write                                0x0800e85e   Section        0  ff.o(i.f_write)
    i.ff_convert                             0x0800ea48   Section        0  mycc936.o(i.ff_convert)
    i.ff_memalloc                            0x0800eae0   Section        0  diskio.o(i.ff_memalloc)
    i.ff_memfree                             0x0800eaee   Section        0  diskio.o(i.ff_memfree)
    i.ff_wtoupper                            0x0800eafc   Section        0  mycc936.o(i.ff_wtoupper)
    i.find_volume                            0x0800eb34   Section        0  ff.o(i.find_volume)
    find_volume                              0x0800eb35   Thumb Code   886  ff.o(i.find_volume)
    i.fit_lfn                                0x0800eebc   Section        0  ff.o(i.fit_lfn)
    fit_lfn                                  0x0800eebd   Thumb Code   122  ff.o(i.fit_lfn)
    i.follow_path                            0x0800ef3c   Section        0  ff.o(i.follow_path)
    follow_path                              0x0800ef3d   Thumb Code   144  ff.o(i.follow_path)
    i.font_init                              0x0800efcc   Section        0  fontupd.o(i.font_init)
    i.fputc                                  0x0800f010   Section        0  usart.o(i.fputc)
    i.gen_numname                            0x0800f02c   Section        0  ff.o(i.gen_numname)
    gen_numname                              0x0800f02d   Thumb Code   194  ff.o(i.gen_numname)
    i.get_fat                                0x0800f0f4   Section        0  ff.o(i.get_fat)
    i.get_fattime                            0x0800f1dc   Section        0  diskio.o(i.get_fattime)
    i.get_fileinfo                           0x0800f1e0   Section        0  ff.o(i.get_fileinfo)
    get_fileinfo                             0x0800f1e1   Thumb Code   268  ff.o(i.get_fileinfo)
    i.get_ldnumber                           0x0800f2ec   Section        0  ff.o(i.get_ldnumber)
    get_ldnumber                             0x0800f2ed   Thumb Code    74  ff.o(i.get_ldnumber)
    i.gif_check_head                         0x0800f336   Section        0  gif.o(i.gif_check_head)
    i.gif_clear2bkcolor                      0x0800f390   Section        0  gif.o(i.gif_clear2bkcolor)
    i.gif_decode                             0x0800f584   Section        0  gif.o(i.gif_decode)
    i.gif_dispimage                          0x0800f6b0   Section        0  gif.o(i.gif_dispimage)
    i.gif_drawimage                          0x0800f8d8   Section        0  gif.o(i.gif_drawimage)
    i.gif_getdatablock                       0x0800fa2c   Section        0  gif.o(i.gif_getdatablock)
    i.gif_getinfo                            0x0800fa8c   Section        0  gif.o(i.gif_getinfo)
    i.gif_getnextbyte                        0x0800fad2   Section        0  gif.o(i.gif_getnextbyte)
    i.gif_getnextcode                        0x0800fe2c   Section        0  gif.o(i.gif_getnextcode)
    i.gif_getrgb565                          0x0800fff4   Section        0  gif.o(i.gif_getrgb565)
    i.gif_initlzw                            0x08010010   Section        0  gif.o(i.gif_initlzw)
    i.gif_readcolortbl                       0x080100a8   Section        0  gif.o(i.gif_readcolortbl)
    i.gif_readextension                      0x080100e8   Section        0  gif.o(i.gif_readextension)
    i.gif_recovergctbl                       0x08010188   Section        0  gif.o(i.gif_recovergctbl)
    i.gif_savegctbl                          0x080101ae   Section        0  gif.o(i.gif_savegctbl)
    i.huffext                                0x080101d4   Section        0  tjpgd.o(i.huffext)
    huffext                                  0x080101d5   Thumb Code   192  tjpgd.o(i.huffext)
    i.is_element_ok                          0x08010294   Section        0  piclib.o(i.is_element_ok)
    i.jd_decomp                              0x080102bc   Section        0  tjpgd.o(i.jd_decomp)
    i.jd_prepare                             0x0801035e   Section        0  tjpgd.o(i.jd_prepare)
    i.jpeg_freeall                           0x080106fc   Section        0  tjpgd.o(i.jpeg_freeall)
    i.jpeg_in_func                           0x08010724   Section        0  tjpgd.o(i.jpeg_in_func)
    i.jpeg_mallocall                         0x08010754   Section        0  tjpgd.o(i.jpeg_mallocall)
    i.jpeg_out_func_fill                     0x080107a8   Section        0  tjpgd.o(i.jpeg_out_func_fill)
    i.jpeg_out_func_point                    0x080107fc   Section        0  tjpgd.o(i.jpeg_out_func_point)
    i.jpg_decode                             0x080108bc   Section        0  tjpgd.o(i.jpg_decode)
    i.ld_clust                               0x080109c0   Section        0  ff.o(i.ld_clust)
    ld_clust                                 0x080109c1   Thumb Code    32  ff.o(i.ld_clust)
    i.main                                   0x080109e0   Section        0  test.o(i.main)
    i.mcu_load                               0x08010c0c   Section        0  tjpgd.o(i.mcu_load)
    mcu_load                                 0x08010c0d   Thumb Code   478  tjpgd.o(i.mcu_load)
    i.mcu_output                             0x08010df0   Section        0  tjpgd.o(i.mcu_output)
    mcu_output                               0x08010df1   Thumb Code   910  tjpgd.o(i.mcu_output)
    i.md_send                                0x08011184   Section        0  usbh_usr.o(i.md_send)
    i.mem_cmp                                0x08011250   Section        0  ff.o(i.mem_cmp)
    mem_cmp                                  0x08011251   Thumb Code    38  ff.o(i.mem_cmp)
    i.mem_cpy                                0x08011276   Section        0  ff.o(i.mem_cpy)
    mem_cpy                                  0x08011277   Thumb Code    26  ff.o(i.mem_cpy)
    i.mem_set                                0x08011290   Section        0  ff.o(i.mem_set)
    mem_set                                  0x08011291   Thumb Code    20  ff.o(i.mem_set)
    i.mf_close                               0x080112a4   Section        0  fattester.o(i.mf_close)
    i.mf_closedir                            0x080112b8   Section        0  fattester.o(i.mf_closedir)
    i.mf_fmkfs                               0x080112c8   Section        0  fattester.o(i.mf_fmkfs)
    i.mf_getlabel                            0x080112dc   Section        0  fattester.o(i.mf_getlabel)
    i.mf_gets                                0x08011360   Section        0  fattester.o(i.mf_gets)
    i.mf_lseek                               0x080113ac   Section        0  fattester.o(i.mf_lseek)
    i.mf_mkdir                               0x080113c0   Section        0  fattester.o(i.mf_mkdir)
    i.mf_mount                               0x080113cc   Section        0  fattester.o(i.mf_mount)
    i.mf_open                                0x080113e4   Section        0  fattester.o(i.mf_open)
    i.mf_opendir                             0x08011400   Section        0  fattester.o(i.mf_opendir)
    i.mf_putc                                0x08011414   Section        0  fattester.o(i.mf_putc)
    i.mf_puts                                0x0801142c   Section        0  fattester.o(i.mf_puts)
    i.mf_read                                0x08011444   Section        0  fattester.o(i.mf_read)
    i.mf_readdir                             0x0801159c   Section        0  fattester.o(i.mf_readdir)
    i.mf_rename                              0x08011730   Section        0  fattester.o(i.mf_rename)
    i.mf_scan_files                          0x08011740   Section        0  fattester.o(i.mf_scan_files)
    i.mf_setlabel                            0x080117d0   Section        0  fattester.o(i.mf_setlabel)
    i.mf_showfree                            0x0801182c   Section        0  fattester.o(i.mf_showfree)
    i.mf_size                                0x080118d4   Section        0  fattester.o(i.mf_size)
    i.mf_tell                                0x080118e0   Section        0  fattester.o(i.mf_tell)
    i.mf_unlink                              0x080118ec   Section        0  fattester.o(i.mf_unlink)
    i.mf_write                               0x080118f8   Section        0  fattester.o(i.mf_write)
    i.minibmp_decode                         0x080119b0   Section        0  bmp.o(i.minibmp_decode)
    i.move_window                            0x08011d80   Section        0  ff.o(i.move_window)
    move_window                              0x08011d81   Thumb Code    50  ff.o(i.move_window)
    i.my_mem_free                            0x08011db4   Section        0  malloc.o(i.my_mem_free)
    i.my_mem_init                            0x08011e20   Section        0  malloc.o(i.my_mem_init)
    i.my_mem_malloc                          0x08011e64   Section        0  malloc.o(i.my_mem_malloc)
    i.my_mem_perused                         0x08011f0c   Section        0  malloc.o(i.my_mem_perused)
    i.myfree                                 0x08011f4c   Section        0  malloc.o(i.myfree)
    i.mymalloc                               0x08011f70   Section        0  malloc.o(i.mymalloc)
    i.mymemset                               0x08011f98   Section        0  malloc.o(i.mymemset)
    i.opt_delay                              0x08011fac   Section        0  ili93xx.o(i.opt_delay)
    i.pic_memalloc                           0x08011fba   Section        0  piclib.o(i.pic_memalloc)
    i.pic_memfree                            0x08011fc8   Section        0  piclib.o(i.pic_memfree)
    i.pick_lfn                               0x08011fd8   Section        0  ff.o(i.pick_lfn)
    pick_lfn                                 0x08011fd9   Thumb Code   112  ff.o(i.pick_lfn)
    i.piclib_alpha_blend                     0x0801204c   Section        0  piclib.o(i.piclib_alpha_blend)
    i.piclib_draw_hline                      0x0801207c   Section        0  piclib.o(i.piclib_draw_hline)
    i.piclib_fill_color                      0x080120b4   Section        0  piclib.o(i.piclib_fill_color)
    i.piclib_init                            0x080120e0   Section        0  piclib.o(i.piclib_init)
    i.put_fat                                0x0801213c   Section        0  ff.o(i.put_fat)
    i.putc_bfd                               0x08012272   Section        0  ff.o(i.putc_bfd)
    putc_bfd                                 0x08012273   Thumb Code    68  ff.o(i.putc_bfd)
    i.read_addr                              0x080122b6   Section        0  usmart.o(i.read_addr)
    i.remove_chain                           0x080122bc   Section        0  ff.o(i.remove_chain)
    remove_chain                             0x080122bd   Thumb Code   108  ff.o(i.remove_chain)
    i.restart                                0x08012328   Section        0  tjpgd.o(i.restart)
    restart                                  0x08012329   Thumb Code   112  tjpgd.o(i.restart)
    i.st_clust                               0x08012398   Section        0  ff.o(i.st_clust)
    st_clust                                 0x08012399   Thumb Code    16  ff.o(i.st_clust)
    i.stdbmp_decode                          0x080123a8   Section        0  bmp.o(i.stdbmp_decode)
    i.sum_sfn                                0x08012678   Section        0  ff.o(i.sum_sfn)
    sum_sfn                                  0x08012679   Thumb Code    32  ff.o(i.sum_sfn)
    i.sync_fs                                0x08012698   Section        0  ff.o(i.sync_fs)
    sync_fs                                  0x08012699   Thumb Code   200  ff.o(i.sync_fs)
    i.sync_window                            0x08012760   Section        0  ff.o(i.sync_window)
    sync_window                              0x08012761   Thumb Code    76  ff.o(i.sync_window)
    i.uart_init                              0x080127ac   Section        0  usart.o(i.uart_init)
    i.usmart_cmd_rec                         0x080128ac   Section        0  usmart.o(i.usmart_cmd_rec)
    i.usmart_exe                             0x0801295c   Section        0  usmart.o(i.usmart_exe)
    i.usmart_get_aparm                       0x08012c30   Section        0  usmart_str.o(i.usmart_get_aparm)
    i.usmart_get_cmdname                     0x08012d04   Section        0  usmart_str.o(i.usmart_get_cmdname)
    i.usmart_get_fname                       0x08012d3c   Section        0  usmart_str.o(i.usmart_get_fname)
    i.usmart_get_fparam                      0x08012efc   Section        0  usmart_str.o(i.usmart_get_fparam)
    i.usmart_get_parmpos                     0x08013008   Section        0  usmart_str.o(i.usmart_get_parmpos)
    i.usmart_get_runtime                     0x08013028   Section        0  usmart.o(i.usmart_get_runtime)
    i.usmart_init                            0x08013068   Section        0  usmart.o(i.usmart_init)
    i.usmart_pow                             0x08013090   Section        0  usmart_str.o(i.usmart_pow)
    i.usmart_reset_runtime                   0x080130a8   Section        0  usmart.o(i.usmart_reset_runtime)
    i.usmart_scan                            0x080130d8   Section        0  usmart.o(i.usmart_scan)
    i.usmart_search_nextc                    0x08013194   Section        0  usmart_str.o(i.usmart_search_nextc)
    i.usmart_str2num                         0x080131aa   Section        0  usmart_str.o(i.usmart_str2num)
    i.usmart_strcmp                          0x080132b0   Section        0  usmart_str.o(i.usmart_strcmp)
    i.usmart_strcopy                         0x080132d2   Section        0  usmart_str.o(i.usmart_strcopy)
    i.usmart_strlen                          0x080132e8   Section        0  usmart_str.o(i.usmart_strlen)
    i.usmart_sys_cmd_exe                     0x08013300   Section        0  usmart.o(i.usmart_sys_cmd_exe)
    i.validate                               0x080139f4   Section        0  ff.o(i.validate)
    validate                                 0x080139f5   Thumb Code    54  ff.o(i.validate)
    i.write_addr                             0x08013a2a   Section        0  usmart.o(i.write_addr)
    x$fpl$fpinit                             0x08013a2e   Section       10  fpinit.o(x$fpl$fpinit)
    $v0                                      0x08013a2e   Number         0  fpinit.o(x$fpl$fpinit)
    .constdata                               0x08013a38   Section     6080  ili93xx.o(.constdata)
    .constdata                               0x080151f8   Section       36  malloc.o(.constdata)
    .constdata                               0x0801521c   Section       58  ff.o(.constdata)
    LfnOfs                                   0x0801521c   Data          13  ff.o(.constdata)
    vst                                      0x0801522a   Data          22  ff.o(.constdata)
    cst                                      0x08015240   Data          22  ff.o(.constdata)
    .constdata                               0x08015258   Section      112  exfuns.o(.constdata)
    .constdata                               0x080152c8   Section      960  mycc936.o(.constdata)
    tbl_lower                                0x080152c8   Data         480  mycc936.o(.constdata)
    tbl_upper                                0x080154a8   Data         480  mycc936.o(.constdata)
    .constdata                               0x08015688   Section       40  gif.o(.constdata)
    .constdata                               0x080156b0   Section     1216  tjpgd.o(.constdata)
    Zig                                      0x080156b0   Data          64  tjpgd.o(.constdata)
    Ipsf                                     0x080156f0   Data         128  tjpgd.o(.constdata)
    Clip8                                    0x08015770   Data        1024  tjpgd.o(.constdata)
    .constdata                               0x08015b70   Section       40  _printf_hex_int.o(.constdata)
    uc_hextab                                0x08015b70   Data          20  _printf_hex_int.o(.constdata)
    lc_hextab                                0x08015b84   Data          20  _printf_hex_int.o(.constdata)
    .constdata                               0x08015b98   Section       17  __printf_flags_ss_wp.o(.constdata)
    maptable                                 0x08015b98   Data          17  __printf_flags_ss_wp.o(.constdata)
    .conststring                             0x08015bac   Section       68  exfuns.o(.conststring)
    .conststring                             0x08015bf0   Section       40  usmart.o(.conststring)
    .conststring                             0x08015c18   Section      817  usmart_config.o(.conststring)
    .conststring                             0x08015f4c   Section       34  usbusr.o(.conststring)
    .ARM.__AT_0x10000000                     0x10000000   Section    61440  malloc.o(.ARM.__AT_0x10000000)
    .ARM.__AT_0x1000F000                     0x1000f000   Section     3840  malloc.o(.ARM.__AT_0x1000F000)
    .data                                    0x20000000   Section        4  delay.o(.data)
    fac_us                                   0x20000000   Data           1  delay.o(.data)
    fac_ms                                   0x20000002   Data           2  delay.o(.data)
    .data                                    0x20000004   Section        6  usart.o(.data)
    .data                                    0x2000000a   Section        4  ili93xx.o(.data)
    .data                                    0x20000010   Section       16  sdio_sdcard.o(.data)
    CardType                                 0x20000010   Data           1  sdio_sdcard.o(.data)
    RCA                                      0x20000014   Data           4  sdio_sdcard.o(.data)
    DeviceMode                               0x20000018   Data           1  sdio_sdcard.o(.data)
    StopCondition                            0x20000019   Data           1  sdio_sdcard.o(.data)
    .data                                    0x20000020   Section        2  w25qxx.o(.data)
    .data                                    0x20000024   Section       36  malloc.o(.data)
    .data                                    0x20000048   Section        2  ff.o(.data)
    Fsid                                     0x20000048   Data           2  ff.o(.data)
    .data                                    0x2000004a   Section        2  diskio.o(.data)
    .data                                    0x2000004c   Section       20  exfuns.o(.data)
    .data                                    0x20000060   Section        1  gif.o(.data)
    .data                                    0x20000064   Section       12  tjpgd.o(.data)
    .data                                    0x20000070   Section       28  usmart.o(.data)
    .data                                    0x2000008c   Section      468  usmart_config.o(.data)
    .data                                    0x20000260   Section       18  usbh_core.o(.data)
    timeout                                  0x20000270   Data           2  usbh_core.o(.data)
    .data                                    0x20000272   Section        3  usbh_stdreq.o(.data)
    prev_ep_size                             0x20000272   Data           2  usbh_stdreq.o(.data)
    prev_itf                                 0x20000274   Data           1  usbh_stdreq.o(.data)
    .data                                    0x20000278   Section       17  usbh_msc_bot.o(.data)
    BOTStallErrorCount                       0x20000278   Data           4  usbh_msc_bot.o(.data)
    remainingDataLength                      0x2000027c   Data           4  usbh_msc_bot.o(.data)
    datapointer                              0x20000280   Data           4  usbh_msc_bot.o(.data)
    datapointer_prev                         0x20000284   Data           4  usbh_msc_bot.o(.data)
    error_direction                          0x20000288   Data           1  usbh_msc_bot.o(.data)
    .data                                    0x2000028c   Section       29  usbh_msc_core.o(.data)
    maxLunExceed                             0x200002a8   Data           1  usbh_msc_core.o(.data)
    .data                                    0x200002a9   Section        1  usbh_msc_scsi.o(.data)
    status                                   0x200002a9   Data           1  usbh_msc_scsi.o(.data)
    .data                                    0x200002ac   Section       76  usbh_usr.o(.data)
    AppState                                 0x200002ac   Data           1  usbh_usr.o(.data)
    .data                                    0x200002f8   Section      100  usbusr.o(.data)
    fxpath1                                  0x20000318   Data           4  usbusr.o(.data)
    fxpath                                   0x2000031c   Data           4  usbusr.o(.data)
    .bss                                     0x2000035c   Section     1596  test.o(.bss)
    .bss                                     0x20000998   Section      200  usart.o(.bss)
    .bss                                     0x20000a60   Section       14  ili93xx.o(.bss)
    .bss                                     0x20000a70   Section      632  sdio_sdcard.o(.bss)
    CSD_Tab                                  0x20000a70   Data          16  sdio_sdcard.o(.bss)
    CID_Tab                                  0x20000a80   Data          16  sdio_sdcard.o(.bss)
    .bss                                     0x20000ce8   Section     4096  w25qxx.o(.bss)
    .bss                                     0x20001d00   Section    108800  malloc.o(.bss)
    .bss                                     0x2001c600   Section       12  ff.o(.bss)
    FatFs                                    0x2001c600   Data          12  ff.o(.bss)
    .bss                                     0x2001c60c   Section       80  exfuns.o(.bss)
    .bss                                     0x2001c65c   Section       33  fontupd.o(.bss)
    .bss                                     0x2001c680   Section       60  piclib.o(.bss)
    .bss                                     0x2001c6bc   Section      512  usbh_stdreq.o(.bss)
    .bss                                     0x2001c8bc   Section       64  usbh_msc_bot.o(.bss)
    .bss                                     0x2001c8fc   Section      522  usbh_msc_core.o(.bss)
    .bss                                     0x2001cb08   Section     1040  usbh_msc_scsi.o(.bss)
    .bss                                     0x2001cf18   Section     1432  usbusr.o(.bss)
    .bss                                     0x2001d4b0   Section       96  libspace.o(.bss)
    HEAP                                     0x2001d510   Section        0  startup_stm32f40_41xxx.o(HEAP)
    STACK                                    0x2001d510   Section     1024  startup_stm32f40_41xxx.o(STACK)
    Heap_Mem                                 0x2001d510   Data           0  startup_stm32f40_41xxx.o(HEAP)
    Stack_Mem                                0x2001d510   Data        1024  startup_stm32f40_41xxx.o(STACK)
    __initial_sp                             0x2001d910   Data           0  startup_stm32f40_41xxx.o(STACK)
    .ARM.__AT_0x68000000                     0x68000000   Section    983040  malloc.o(.ARM.__AT_0x68000000)
    .ARM.__AT_0x680F0000                     0x680f0000   Section    61440  malloc.o(.ARM.__AT_0x680F0000)

    Global Symbols

    Symbol Name                              Value     Ov Type        Size  Object(Section)

    BuildAttributes$$THM_ISAv4$E$P$D$K$B$S$7EM$VFPi3$EXTD16$VFPS$VFMA$PE$A:L22UL41UL21$X:L11$S22US41US21$IEEE1$IW$USESV6$~STKCKD$USESV7$~SHL$OSPACE$ROPI$EBA8$UX$STANDARDLIB$REQ8$PRES8$EABIv2 0x00000000   Number         0  anon$$obj.o ABSOLUTE
    __ARM_use_no_argv                        0x00000000   Number         0  test.o ABSOLUTE
    _printf_flags                            0x00000000   Number         0  printf_stubs.o ABSOLUTE
    _printf_return_value                     0x00000000   Number         0  printf_stubs.o ABSOLUTE
    _printf_sizespec                         0x00000000   Number         0  printf_stubs.o ABSOLUTE
    _printf_widthprec                        0x00000000   Number         0  printf_stubs.o ABSOLUTE
    __ARM_exceptions_init                     - Undefined Weak Reference
    __alloca_initialize                       - Undefined Weak Reference
    __cpp_initialize__aeabi_                  - Undefined Weak Reference
    __cxa_finalize                            - Undefined Weak Reference
    __rt_locale                               - Undefined Weak Reference
    __sigvec_lookup                           - Undefined Weak Reference
    _atexit_init                              - Undefined Weak Reference
    _call_atexit_fns                          - Undefined Weak Reference
    _clock_init                               - Undefined Weak Reference
    _fp_trap_init                             - Undefined Weak Reference
    _fp_trap_shutdown                         - Undefined Weak Reference
    _get_lc_collate                           - Undefined Weak Reference
    _get_lc_ctype                             - Undefined Weak Reference
    _get_lc_monetary                          - Undefined Weak Reference
    _get_lc_numeric                           - Undefined Weak Reference
    _get_lc_time                              - Undefined Weak Reference
    _getenv_init                              - Undefined Weak Reference
    _handle_redirection                       - Undefined Weak Reference
    _init_alloc                               - Undefined Weak Reference
    _init_user_alloc                          - Undefined Weak Reference
    _initio                                   - Undefined Weak Reference
    _mutex_acquire                            - Undefined Weak Reference
    _mutex_release                            - Undefined Weak Reference
    _printf_mbtowc                            - Undefined Weak Reference
    _printf_truncate_signed                   - Undefined Weak Reference
    _printf_truncate_unsigned                 - Undefined Weak Reference
    _rand_init                                - Undefined Weak Reference
    _signal_finish                            - Undefined Weak Reference
    _signal_init                              - Undefined Weak Reference
    _terminate_alloc                          - Undefined Weak Reference
    _terminate_user_alloc                     - Undefined Weak Reference
    _terminateio                              - Undefined Weak Reference
    __Vectors_Size                           0x00000188   Number         0  startup_stm32f40_41xxx.o ABSOLUTE
    __Vectors                                0x08000000   Data           4  startup_stm32f40_41xxx.o(RESET)
    __Vectors_End                            0x08000188   Data           0  startup_stm32f40_41xxx.o(RESET)
    __main                                   0x08000189   Thumb Code     8  __main.o(!!!main)
    __scatterload                            0x08000191   Thumb Code     0  __scatter.o(!!!scatter)
    __scatterload_rt2                        0x08000191   Thumb Code    44  __scatter.o(!!!scatter)
    __scatterload_rt2_thumb_only             0x08000191   Thumb Code     0  __scatter.o(!!!scatter)
    __scatterload_null                       0x0800019f   Thumb Code     0  __scatter.o(!!!scatter)
    __decompress                             0x080001c5   Thumb Code    90  __dczerorl2.o(!!dczerorl2)
    __decompress1                            0x080001c5   Thumb Code     0  __dczerorl2.o(!!dczerorl2)
    __scatterload_zeroinit                   0x08000221   Thumb Code    28  __scatter_zi.o(!!handler_zi)
    _printf_d                                0x0800023d   Thumb Code     0  _printf_d.o(.ARM.Collect$$_printf_percent$$00000009)
    _printf_percent                          0x0800023d   Thumb Code     0  _printf_percent.o(.ARM.Collect$$_printf_percent$$00000000)
    _printf_u                                0x08000243   Thumb Code     0  _printf_u.o(.ARM.Collect$$_printf_percent$$0000000A)
    _printf_x                                0x08000249   Thumb Code     0  _printf_x.o(.ARM.Collect$$_printf_percent$$0000000C)
    _printf_c                                0x0800024f   Thumb Code     0  _printf_c.o(.ARM.Collect$$_printf_percent$$00000013)
    _printf_s                                0x08000255   Thumb Code     0  _printf_s.o(.ARM.Collect$$_printf_percent$$00000014)
    _printf_percent_end                      0x0800025b   Thumb Code     0  _printf_percent_end.o(.ARM.Collect$$_printf_percent$$00000017)
    __rt_lib_init                            0x0800025f   Thumb Code     0  libinit.o(.ARM.Collect$$libinit$$00000000)
    __rt_lib_init_fp_1                       0x08000261   Thumb Code     0  libinit2.o(.ARM.Collect$$libinit$$00000001)
    __rt_lib_init_alloca_1                   0x08000265   Thumb Code     0  libinit2.o(.ARM.Collect$$libinit$$0000002C)
    __rt_lib_init_argv_1                     0x08000265   Thumb Code     0  libinit2.o(.ARM.Collect$$libinit$$0000002A)
    __rt_lib_init_atexit_1                   0x08000265   Thumb Code     0  libinit2.o(.ARM.Collect$$libinit$$00000019)
    __rt_lib_init_clock_1                    0x08000265   Thumb Code     0  libinit2.o(.ARM.Collect$$libinit$$0000001F)
    __rt_lib_init_cpp_1                      0x08000265   Thumb Code     0  libinit2.o(.ARM.Collect$$libinit$$00000030)
    __rt_lib_init_exceptions_1               0x08000265   Thumb Code     0  libinit2.o(.ARM.Collect$$libinit$$0000002E)
    __rt_lib_init_fp_trap_1                  0x08000265   Thumb Code     0  libinit2.o(.ARM.Collect$$libinit$$0000001D)
    __rt_lib_init_getenv_1                   0x08000265   Thumb Code     0  libinit2.o(.ARM.Collect$$libinit$$00000021)
    __rt_lib_init_heap_1                     0x08000265   Thumb Code     0  libinit2.o(.ARM.Collect$$libinit$$00000008)
    __rt_lib_init_lc_collate_1               0x08000265   Thumb Code     0  libinit2.o(.ARM.Collect$$libinit$$0000000F)
    __rt_lib_init_lc_ctype_1                 0x08000265   Thumb Code     0  libinit2.o(.ARM.Collect$$libinit$$00000011)
    __rt_lib_init_lc_monetary_1              0x08000265   Thumb Code     0  libinit2.o(.ARM.Collect$$libinit$$00000013)
    __rt_lib_init_lc_numeric_1               0x08000265   Thumb Code     0  libinit2.o(.ARM.Collect$$libinit$$00000015)
    __rt_lib_init_lc_time_1                  0x08000265   Thumb Code     0  libinit2.o(.ARM.Collect$$libinit$$00000017)
    __rt_lib_init_rand_1                     0x08000265   Thumb Code     0  libinit2.o(.ARM.Collect$$libinit$$0000000C)
    __rt_lib_init_return                     0x08000265   Thumb Code     0  libinit2.o(.ARM.Collect$$libinit$$00000031)
    __rt_lib_init_signal_1                   0x08000265   Thumb Code     0  libinit2.o(.ARM.Collect$$libinit$$0000001B)
    __rt_lib_init_stdio_1                    0x08000265   Thumb Code     0  libinit2.o(.ARM.Collect$$libinit$$00000023)
    __rt_lib_init_user_alloc_1               0x08000265   Thumb Code     0  libinit2.o(.ARM.Collect$$libinit$$0000000A)
    __rt_lib_shutdown                        0x08000267   Thumb Code     0  libshutdown.o(.ARM.Collect$$libshutdown$$00000000)
    __rt_lib_shutdown_fp_trap_1              0x08000269   Thumb Code     0  libshutdown2.o(.ARM.Collect$$libshutdown$$00000006)
    __rt_lib_shutdown_heap_1                 0x08000269   Thumb Code     0  libshutdown2.o(.ARM.Collect$$libshutdown$$0000000E)
    __rt_lib_shutdown_return                 0x08000269   Thumb Code     0  libshutdown2.o(.ARM.Collect$$libshutdown$$0000000F)
    __rt_lib_shutdown_signal_1               0x08000269   Thumb Code     0  libshutdown2.o(.ARM.Collect$$libshutdown$$00000009)
    __rt_lib_shutdown_stdio_1                0x08000269   Thumb Code     0  libshutdown2.o(.ARM.Collect$$libshutdown$$00000003)
    __rt_lib_shutdown_user_alloc_1           0x08000269   Thumb Code     0  libshutdown2.o(.ARM.Collect$$libshutdown$$0000000B)
    __rt_entry                               0x0800026b   Thumb Code     0  rtentry.o(.ARM.Collect$$rtentry$$00000000)
    __rt_entry_presh_1                       0x0800026b   Thumb Code     0  rtentry2.o(.ARM.Collect$$rtentry$$00000002)
    __rt_entry_sh                            0x0800026b   Thumb Code     0  rtentry4.o(.ARM.Collect$$rtentry$$00000004)
    __rt_entry_li                            0x08000271   Thumb Code     0  rtentry2.o(.ARM.Collect$$rtentry$$0000000A)
    __rt_entry_postsh_1                      0x08000271   Thumb Code     0  rtentry2.o(.ARM.Collect$$rtentry$$00000009)
    __rt_entry_main                          0x08000275   Thumb Code     0  rtentry2.o(.ARM.Collect$$rtentry$$0000000D)
    __rt_entry_postli_1                      0x08000275   Thumb Code     0  rtentry2.o(.ARM.Collect$$rtentry$$0000000C)
    __rt_exit                                0x0800027d   Thumb Code     0  rtexit.o(.ARM.Collect$$rtexit$$00000000)
    __rt_exit_ls                             0x0800027f   Thumb Code     0  rtexit2.o(.ARM.Collect$$rtexit$$00000003)
    __rt_exit_prels_1                        0x0800027f   Thumb Code     0  rtexit2.o(.ARM.Collect$$rtexit$$00000002)
    __rt_exit_exit                           0x08000283   Thumb Code     0  rtexit2.o(.ARM.Collect$$rtexit$$00000004)
    WFI_SET                                  0x08000289   Thumb Code     2  sys.o(.emb_text)
    INTX_DISABLE                             0x0800028b   Thumb Code     4  sys.o(.emb_text)
    INTX_ENABLE                              0x0800028f   Thumb Code     4  sys.o(.emb_text)
    MSR_MSP                                  0x08000293   Thumb Code     6  sys.o(.emb_text)
    Reset_Handler                            0x08000299   Thumb Code    14  startup_stm32f40_41xxx.o(.text)
    NMI_Handler                              0x080002a7   Thumb Code     2  startup_stm32f40_41xxx.o(.text)
    HardFault_Handler                        0x080002a9   Thumb Code     2  startup_stm32f40_41xxx.o(.text)
    MemManage_Handler                        0x080002ab   Thumb Code     2  startup_stm32f40_41xxx.o(.text)
    BusFault_Handler                         0x080002ad   Thumb Code     2  startup_stm32f40_41xxx.o(.text)
    UsageFault_Handler                       0x080002af   Thumb Code     2  startup_stm32f40_41xxx.o(.text)
    SVC_Handler                              0x080002b1   Thumb Code     2  startup_stm32f40_41xxx.o(.text)
    DebugMon_Handler                         0x080002b3   Thumb Code     2  startup_stm32f40_41xxx.o(.text)
    PendSV_Handler                           0x080002b5   Thumb Code     2  startup_stm32f40_41xxx.o(.text)
    SysTick_Handler                          0x080002b7   Thumb Code     2  startup_stm32f40_41xxx.o(.text)
    ADC_IRQHandler                           0x080002b9   Thumb Code     0  startup_stm32f40_41xxx.o(.text)
    CAN1_RX0_IRQHandler                      0x080002b9   Thumb Code     0  startup_stm32f40_41xxx.o(.text)
    CAN1_RX1_IRQHandler                      0x080002b9   Thumb Code     0  startup_stm32f40_41xxx.o(.text)
    CAN1_SCE_IRQHandler                      0x080002b9   Thumb Code     0  startup_stm32f40_41xxx.o(.text)
    CAN1_TX_IRQHandler                       0x080002b9   Thumb Code     0  startup_stm32f40_41xxx.o(.text)
    CAN2_RX0_IRQHandler                      0x080002b9   Thumb Code     0  startup_stm32f40_41xxx.o(.text)
    CAN2_RX1_IRQHandler                      0x080002b9   Thumb Code     0  startup_stm32f40_41xxx.o(.text)
    CAN2_SCE_IRQHandler                      0x080002b9   Thumb Code     0  startup_stm32f40_41xxx.o(.text)
    CAN2_TX_IRQHandler                       0x080002b9   Thumb Code     0  startup_stm32f40_41xxx.o(.text)
    CRYP_IRQHandler                          0x080002b9   Thumb Code     0  startup_stm32f40_41xxx.o(.text)
    DCMI_IRQHandler                          0x080002b9   Thumb Code     0  startup_stm32f40_41xxx.o(.text)
    DMA1_Stream0_IRQHandler                  0x080002b9   Thumb Code     0  startup_stm32f40_41xxx.o(.text)
    DMA1_Stream1_IRQHandler                  0x080002b9   Thumb Code     0  startup_stm32f40_41xxx.o(.text)
    DMA1_Stream2_IRQHandler                  0x080002b9   Thumb Code     0  startup_stm32f40_41xxx.o(.text)
    DMA1_Stream3_IRQHandler                  0x080002b9   Thumb Code     0  startup_stm32f40_41xxx.o(.text)
    DMA1_Stream4_IRQHandler                  0x080002b9   Thumb Code     0  startup_stm32f40_41xxx.o(.text)
    DMA1_Stream5_IRQHandler                  0x080002b9   Thumb Code     0  startup_stm32f40_41xxx.o(.text)
    DMA1_Stream6_IRQHandler                  0x080002b9   Thumb Code     0  startup_stm32f40_41xxx.o(.text)
    DMA1_Stream7_IRQHandler                  0x080002b9   Thumb Code     0  startup_stm32f40_41xxx.o(.text)
    DMA2_Stream0_IRQHandler                  0x080002b9   Thumb Code     0  startup_stm32f40_41xxx.o(.text)
    DMA2_Stream1_IRQHandler                  0x080002b9   Thumb Code     0  startup_stm32f40_41xxx.o(.text)
    DMA2_Stream2_IRQHandler                  0x080002b9   Thumb Code     0  startup_stm32f40_41xxx.o(.text)
    DMA2_Stream3_IRQHandler                  0x080002b9   Thumb Code     0  startup_stm32f40_41xxx.o(.text)
    DMA2_Stream4_IRQHandler                  0x080002b9   Thumb Code     0  startup_stm32f40_41xxx.o(.text)
    DMA2_Stream5_IRQHandler                  0x080002b9   Thumb Code     0  startup_stm32f40_41xxx.o(.text)
    DMA2_Stream6_IRQHandler                  0x080002b9   Thumb Code     0  startup_stm32f40_41xxx.o(.text)
    DMA2_Stream7_IRQHandler                  0x080002b9   Thumb Code     0  startup_stm32f40_41xxx.o(.text)
    ETH_IRQHandler                           0x080002b9   Thumb Code     0  startup_stm32f40_41xxx.o(.text)
    ETH_WKUP_IRQHandler                      0x080002b9   Thumb Code     0  startup_stm32f40_41xxx.o(.text)
    EXTI0_IRQHandler                         0x080002b9   Thumb Code     0  startup_stm32f40_41xxx.o(.text)
    EXTI15_10_IRQHandler                     0x080002b9   Thumb Code     0  startup_stm32f40_41xxx.o(.text)
    EXTI1_IRQHandler                         0x080002b9   Thumb Code     0  startup_stm32f40_41xxx.o(.text)
    EXTI2_IRQHandler                         0x080002b9   Thumb Code     0  startup_stm32f40_41xxx.o(.text)
    EXTI3_IRQHandler                         0x080002b9   Thumb Code     0  startup_stm32f40_41xxx.o(.text)
    EXTI4_IRQHandler                         0x080002b9   Thumb Code     0  startup_stm32f40_41xxx.o(.text)
    EXTI9_5_IRQHandler                       0x080002b9   Thumb Code     0  startup_stm32f40_41xxx.o(.text)
    FLASH_IRQHandler                         0x080002b9   Thumb Code     0  startup_stm32f40_41xxx.o(.text)
    FPU_IRQHandler                           0x080002b9   Thumb Code     0  startup_stm32f40_41xxx.o(.text)
    FSMC_IRQHandler                          0x080002b9   Thumb Code     0  startup_stm32f40_41xxx.o(.text)
    HASH_RNG_IRQHandler                      0x080002b9   Thumb Code     0  startup_stm32f40_41xxx.o(.text)
    I2C1_ER_IRQHandler                       0x080002b9   Thumb Code     0  startup_stm32f40_41xxx.o(.text)
    I2C1_EV_IRQHandler                       0x080002b9   Thumb Code     0  startup_stm32f40_41xxx.o(.text)
    I2C2_ER_IRQHandler                       0x080002b9   Thumb Code     0  startup_stm32f40_41xxx.o(.text)
    I2C2_EV_IRQHandler                       0x080002b9   Thumb Code     0  startup_stm32f40_41xxx.o(.text)
    I2C3_ER_IRQHandler                       0x080002b9   Thumb Code     0  startup_stm32f40_41xxx.o(.text)
    I2C3_EV_IRQHandler                       0x080002b9   Thumb Code     0  startup_stm32f40_41xxx.o(.text)
    OTG_FS_WKUP_IRQHandler                   0x080002b9   Thumb Code     0  startup_stm32f40_41xxx.o(.text)
    OTG_HS_EP1_IN_IRQHandler                 0x080002b9   Thumb Code     0  startup_stm32f40_41xxx.o(.text)
    OTG_HS_EP1_OUT_IRQHandler                0x080002b9   Thumb Code     0  startup_stm32f40_41xxx.o(.text)
    OTG_HS_IRQHandler                        0x080002b9   Thumb Code     0  startup_stm32f40_41xxx.o(.text)
    OTG_HS_WKUP_IRQHandler                   0x080002b9   Thumb Code     0  startup_stm32f40_41xxx.o(.text)
    PVD_IRQHandler                           0x080002b9   Thumb Code     0  startup_stm32f40_41xxx.o(.text)
    RCC_IRQHandler                           0x080002b9   Thumb Code     0  startup_stm32f40_41xxx.o(.text)
    RTC_Alarm_IRQHandler                     0x080002b9   Thumb Code     0  startup_stm32f40_41xxx.o(.text)
    RTC_WKUP_IRQHandler                      0x080002b9   Thumb Code     0  startup_stm32f40_41xxx.o(.text)
    SPI1_IRQHandler                          0x080002b9   Thumb Code     0  startup_stm32f40_41xxx.o(.text)
    SPI2_IRQHandler                          0x080002b9   Thumb Code     0  startup_stm32f40_41xxx.o(.text)
    SPI3_IRQHandler                          0x080002b9   Thumb Code     0  startup_stm32f40_41xxx.o(.text)
    TAMP_STAMP_IRQHandler                    0x080002b9   Thumb Code     0  startup_stm32f40_41xxx.o(.text)
    TIM1_BRK_TIM9_IRQHandler                 0x080002b9   Thumb Code     0  startup_stm32f40_41xxx.o(.text)
    TIM1_CC_IRQHandler                       0x080002b9   Thumb Code     0  startup_stm32f40_41xxx.o(.text)
    TIM1_TRG_COM_TIM11_IRQHandler            0x080002b9   Thumb Code     0  startup_stm32f40_41xxx.o(.text)
    TIM1_UP_TIM10_IRQHandler                 0x080002b9   Thumb Code     0  startup_stm32f40_41xxx.o(.text)
    TIM2_IRQHandler                          0x080002b9   Thumb Code     0  startup_stm32f40_41xxx.o(.text)
    TIM3_IRQHandler                          0x080002b9   Thumb Code     0  startup_stm32f40_41xxx.o(.text)
    TIM5_IRQHandler                          0x080002b9   Thumb Code     0  startup_stm32f40_41xxx.o(.text)
    TIM6_DAC_IRQHandler                      0x080002b9   Thumb Code     0  startup_stm32f40_41xxx.o(.text)
    TIM7_IRQHandler                          0x080002b9   Thumb Code     0  startup_stm32f40_41xxx.o(.text)
    TIM8_BRK_TIM12_IRQHandler                0x080002b9   Thumb Code     0  startup_stm32f40_41xxx.o(.text)
    TIM8_CC_IRQHandler                       0x080002b9   Thumb Code     0  startup_stm32f40_41xxx.o(.text)
    TIM8_TRG_COM_TIM14_IRQHandler            0x080002b9   Thumb Code     0  startup_stm32f40_41xxx.o(.text)
    TIM8_UP_TIM13_IRQHandler                 0x080002b9   Thumb Code     0  startup_stm32f40_41xxx.o(.text)
    UART4_IRQHandler                         0x080002b9   Thumb Code     0  startup_stm32f40_41xxx.o(.text)
    UART5_IRQHandler                         0x080002b9   Thumb Code     0  startup_stm32f40_41xxx.o(.text)
    USART2_IRQHandler                        0x080002b9   Thumb Code     0  startup_stm32f40_41xxx.o(.text)
    USART3_IRQHandler                        0x080002b9   Thumb Code     0  startup_stm32f40_41xxx.o(.text)
    USART6_IRQHandler                        0x080002b9   Thumb Code     0  startup_stm32f40_41xxx.o(.text)
    WWDG_IRQHandler                          0x080002b9   Thumb Code     0  startup_stm32f40_41xxx.o(.text)
    __user_initial_stackheap                 0x080002bd   Thumb Code     0  startup_stm32f40_41xxx.o(.text)
    __use_no_semihosting                     0x080002dd   Thumb Code     2  use_no_semi_2.o(.text)
    __aeabi_ldivmod                          0x080002df   Thumb Code     0  llsdiv.o(.text)
    _ll_sdiv                                 0x080002df   Thumb Code    72  llsdiv.o(.text)
    __2printf                                0x08000329   Thumb Code    20  noretval__2printf.o(.text)
    _printf_pre_padding                      0x08000341   Thumb Code    44  _printf_pad.o(.text)
    _printf_post_padding                     0x0800036d   Thumb Code    34  _printf_pad.o(.text)
    _printf_str                              0x0800038f   Thumb Code    82  _printf_str.o(.text)
    _printf_int_dec                          0x080003e1   Thumb Code   100  _printf_dec.o(.text)
    _printf_int_hex                          0x08000455   Thumb Code    84  _printf_hex_int.o(.text)
    _printf_longlong_hex                     0x08000455   Thumb Code     0  _printf_hex_int.o(.text)
    __printf                                 0x080004ad   Thumb Code   388  __printf_flags_ss_wp.o(.text)
    strcpy                                   0x08000635   Thumb Code    72  strcpy.o(.text)
    strlen                                   0x0800067d   Thumb Code    62  strlen.o(.text)
    __aeabi_memcpy                           0x080006bb   Thumb Code     0  rt_memcpy_v6.o(.text)
    __rt_memcpy                              0x080006bb   Thumb Code   138  rt_memcpy_v6.o(.text)
    _memcpy_lastbytes                        0x08000721   Thumb Code     0  rt_memcpy_v6.o(.text)
    strcmp                                   0x08000745   Thumb Code   128  strcmpv7m.o(.text)
    __use_two_region_memory                  0x080007c5   Thumb Code     2  heapauxi.o(.text)
    __rt_heap_escrow$2region                 0x080007c7   Thumb Code     2  heapauxi.o(.text)
    __rt_heap_expand$2region                 0x080007c9   Thumb Code     2  heapauxi.o(.text)
    __I$use$semihosting                      0x080007cb   Thumb Code     0  use_no_semi.o(.text)
    __use_no_semihosting_swi                 0x080007cb   Thumb Code     2  use_no_semi.o(.text)
    __aeabi_uldivmod                         0x080007cd   Thumb Code     0  lludivv7m.o(.text)
    _ll_udiv                                 0x080007cd   Thumb Code   238  lludivv7m.o(.text)
    _printf_int_common                       0x080008bb   Thumb Code   178  _printf_intcommon.o(.text)
    _printf_cs_common                        0x0800096d   Thumb Code    20  _printf_char.o(.text)
    _printf_char                             0x08000981   Thumb Code    16  _printf_char.o(.text)
    _printf_string                           0x08000991   Thumb Code     8  _printf_char.o(.text)
    _printf_char_file                        0x08000999   Thumb Code    32  _printf_char_file.o(.text)
    __aeabi_memcpy4                          0x080009bd   Thumb Code     0  rt_memcpy_w.o(.text)
    __aeabi_memcpy8                          0x080009bd   Thumb Code     0  rt_memcpy_w.o(.text)
    __rt_memcpy_w                            0x080009bd   Thumb Code   100  rt_memcpy_w.o(.text)
    _memcpy_lastbytes_aligned                0x08000a05   Thumb Code     0  rt_memcpy_w.o(.text)
    _printf_char_common                      0x08000a2b   Thumb Code    32  _printf_char_common.o(.text)
    ferror                                   0x08000a51   Thumb Code     8  ferror.o(.text)
    __user_setup_stackheap                   0x08000a59   Thumb Code    74  sys_stackheap_outer.o(.text)
    exit                                     0x08000aa3   Thumb Code    12  exit.o(.text)
    __user_libspace                          0x08000ab1   Thumb Code     8  libspace.o(.text)
    __user_perproc_libspace                  0x08000ab1   Thumb Code     0  libspace.o(.text)
    __user_perthread_libspace                0x08000ab1   Thumb Code     0  libspace.o(.text)
    CmdError                                 0x08000ab9   Thumb Code    50  sdio_sdcard.o(i.CmdError)
    CmdResp1Error                            0x08000af1   Thumb Code    92  sdio_sdcard.o(i.CmdResp1Error)
    CmdResp2Error                            0x08000b51   Thumb Code    98  sdio_sdcard.o(i.CmdResp2Error)
    CmdResp3Error                            0x08000bb9   Thumb Code    58  sdio_sdcard.o(i.CmdResp3Error)
    CmdResp6Error                            0x08000bf9   Thumb Code   156  sdio_sdcard.o(i.CmdResp6Error)
    CmdResp7Error                            0x08000c99   Thumb Code    88  sdio_sdcard.o(i.CmdResp7Error)
    DeInit                                   0x08000cf5   Thumb Code    78  usbusr.o(i.DeInit)
    FindSCR                                  0x08000d4d   Thumb Code   344  sdio_sdcard.o(i.FindSCR)
    GPIO_AF_Set                              0x08000ea9   Thumb Code    64  sys.o(i.GPIO_AF_Set)
    GPIO_Set                                 0x08000ee9   Thumb Code   222  sys.o(i.GPIO_Set)
    Get_HzMat                                0x08000fc9   Thumb Code   220  text.o(i.Get_HzMat)
    HCD_GetCurrentFrame                      0x080010a9   Thumb Code    10  usb_hcd.o(i.HCD_GetCurrentFrame)
    HCD_GetCurrentSpeed                      0x080010b3   Thumb Code    20  usb_hcd.o(i.HCD_GetCurrentSpeed)
    HCD_GetURB_State                         0x080010c7   Thumb Code    10  usb_hcd.o(i.HCD_GetURB_State)
    HCD_GetXferCnt                           0x080010d1   Thumb Code    12  usb_hcd.o(i.HCD_GetXferCnt)
    HCD_Init                                 0x080010dd   Thumb Code    96  usb_hcd.o(i.HCD_Init)
    HCD_IsDeviceConnected                    0x0800113d   Thumb Code     8  usb_hcd.o(i.HCD_IsDeviceConnected)
    HCD_ResetPort                            0x08001145   Thumb Code    14  usb_hcd.o(i.HCD_ResetPort)
    HCD_SubmitRequest                        0x08001153   Thumb Code    32  usb_hcd.o(i.HCD_SubmitRequest)
    Init                                     0x08001175   Thumb Code   192  usbusr.o(i.Init)
    IsCardProgramming                        0x08001281   Thumb Code   148  sdio_sdcard.o(i.IsCardProgramming)
    KEY_Init                                 0x0800131d   Thumb Code    66  key.o(i.KEY_Init)
    LCD_BGR2RGB                              0x0800136d   Thumb Code    26  ili93xx.o(i.LCD_BGR2RGB)
    LCD_Clear                                0x08001389   Thumb Code   100  ili93xx.o(i.LCD_Clear)
    LCD_Color_Fill                           0x080013f5   Thumb Code    92  ili93xx.o(i.LCD_Color_Fill)
    LCD_Display_Dir                          0x08001455   Thumb Code   364  ili93xx.o(i.LCD_Display_Dir)
    LCD_Fast_DrawPoint                       0x080015c5   Thumb Code   280  ili93xx.o(i.LCD_Fast_DrawPoint)
    LCD_Fill                                 0x080016e5   Thumb Code   180  ili93xx.o(i.LCD_Fill)
    LCD_Init                                 0x0800179d   Thumb Code 14154  ili93xx.o(i.LCD_Init)
    LCD_Pow                                  0x08004ef1   Thumb Code    22  ili93xx.o(i.LCD_Pow)
    LCD_RD_DATA                              0x08004f09   Thumb Code    14  ili93xx.o(i.LCD_RD_DATA)
    LCD_ReadPoint                            0x08004f1d   Thumb Code   356  ili93xx.o(i.LCD_ReadPoint)
    LCD_ReadReg                              0x08005085   Thumb Code    22  ili93xx.o(i.LCD_ReadReg)
    LCD_Scan_Dir                             0x0800509d   Thumb Code   678  ili93xx.o(i.LCD_Scan_Dir)
    LCD_SetCursor                            0x08005349   Thumb Code   262  ili93xx.o(i.LCD_SetCursor)
    LCD_ShowChar                             0x08005455   Thumb Code   272  ili93xx.o(i.LCD_ShowChar)
    LCD_ShowNum                              0x0800557d   Thumb Code   148  ili93xx.o(i.LCD_ShowNum)
    LCD_ShowString                           0x08005611   Thumb Code   102  ili93xx.o(i.LCD_ShowString)
    LCD_WR_DATA                              0x08005679   Thumb Code    18  ili93xx.o(i.LCD_WR_DATA)
    LCD_WR_REG                               0x08005691   Thumb Code    18  ili93xx.o(i.LCD_WR_REG)
    LCD_WriteRAM_Prepare                     0x080056a9   Thumb Code    10  ili93xx.o(i.LCD_WriteRAM_Prepare)
    LCD_WriteReg                             0x080056bd   Thumb Code    24  ili93xx.o(i.LCD_WriteReg)
    LED_Init                                 0x080056d9   Thumb Code    48  led.o(i.LED_Init)
    MY_NVIC_Init                             0x08005719   Thumb Code   116  sys.o(i.MY_NVIC_Init)
    MY_NVIC_PriorityGroupConfig              0x08005791   Thumb Code    32  sys.o(i.MY_NVIC_PriorityGroupConfig)
    MY_NVIC_SetVectorTable                   0x080057b9   Thumb Code    12  sys.o(i.MY_NVIC_SetVectorTable)
    My_Config                                0x080057c9   Thumb Code   568  usbusr.o(i.My_Config)
    My_Machine                               0x08005a61   Thumb Code   646  usbusr.o(i.My_Machine)
    OTG_FS_IRQHandler                        0x08005da9   Thumb Code    10  usbh_usr.o(i.OTG_FS_IRQHandler)
    Requests                                 0x08005db9   Thumb Code     6  usbusr.o(i.Requests)
    SDEnWideBus                              0x08005dc1   Thumb Code   118  sdio_sdcard.o(i.SDEnWideBus)
    SDIO_Clock_Set                           0x08005e41   Thumb Code    16  sdio_sdcard.o(i.SDIO_Clock_Set)
    SDIO_IRQHandler                          0x08005e55   Thumb Code     8  sdio_sdcard.o(i.SDIO_IRQHandler)
    SDIO_Send_Cmd                            0x08005e5d   Thumb Code    40  sdio_sdcard.o(i.SDIO_Send_Cmd)
    SDIO_Send_Data_Cfg                       0x08005e89   Thumb Code    50  sdio_sdcard.o(i.SDIO_Send_Data_Cfg)
    SD_DMA_Config                            0x08005ec1   Thumb Code   138  sdio_sdcard.o(i.SD_DMA_Config)
    SD_EnableWideBusOperation                0x08005f55   Thumb Code    94  sdio_sdcard.o(i.SD_EnableWideBusOperation)
    SD_GetCardInfo                           0x08005fbd   Thumb Code   772  sdio_sdcard.o(i.SD_GetCardInfo)
    SD_Init                                  0x080062d1   Thumb Code   348  sdio_sdcard.o(i.SD_Init)
    SD_InitializeCards                       0x08006449   Thumb Code   256  sdio_sdcard.o(i.SD_InitializeCards)
    SD_PowerON                               0x0800655d   Thumb Code   366  sdio_sdcard.o(i.SD_PowerON)
    SD_ProcessIRQSrc                         0x080066dd   Thumb Code   346  sdio_sdcard.o(i.SD_ProcessIRQSrc)
    SD_ReadBlock                             0x08006849   Thumb Code   554  sdio_sdcard.o(i.SD_ReadBlock)
    SD_ReadDisk                              0x08006a95   Thumb Code   152  sdio_sdcard.o(i.SD_ReadDisk)
    SD_ReadMultiBlocks                       0x08006b35   Thumb Code   670  sdio_sdcard.o(i.SD_ReadMultiBlocks)
    SD_SelectDeselect                        0x08006df9   Thumb Code    22  sdio_sdcard.o(i.SD_SelectDeselect)
    SD_SetDeviceMode                         0x08006e11   Thumb Code    20  sdio_sdcard.o(i.SD_SetDeviceMode)
    SD_WriteBlock                            0x08006e29   Thumb Code   804  sdio_sdcard.o(i.SD_WriteBlock)
    SD_WriteDisk                             0x0800716d   Thumb Code   152  sdio_sdcard.o(i.SD_WriteDisk)
    SD_WriteMultiBlocks                      0x0800720d   Thumb Code   858  sdio_sdcard.o(i.SD_WriteMultiBlocks)
    SPI1_Init                                0x08007589   Thumb Code   164  spi.o(i.SPI1_Init)
    SPI1_ReadWriteByte                       0x08007639   Thumb Code    42  spi.o(i.SPI1_ReadWriteByte)
    SPI1_SetSpeed                            0x08007669   Thumb Code    40  spi.o(i.SPI1_SetSpeed)
    Show_Font                                0x08007695   Thumb Code   190  text.o(i.Show_Font)
    Show_Str                                 0x0800775d   Thumb Code   194  text.o(i.Show_Str)
    Stm32_Clock_Init                         0x08007821   Thumb Code    90  sys.o(i.Stm32_Clock_Init)
    Sys_Clock_Set                            0x08007889   Thumb Code   254  sys.o(i.Sys_Clock_Set)
    TIM4_IRQHandler                          0x08007995   Thumb Code    50  usmart.o(i.TIM4_IRQHandler)
    Timer4_Init                              0x080079d1   Thumb Code    72  usmart.o(i.Timer4_Init)
    USART1_IRQHandler                        0x08007a21   Thumb Code   116  usart.o(i.USART1_IRQHandler)
    USBH_Alloc_Channel                       0x08007aa1   Thumb Code    38  usbh_hcs.o(i.USBH_Alloc_Channel)
    USBH_BulkReceiveData                     0x08007ac7   Thumb Code    96  usbh_ioreq.o(i.USBH_BulkReceiveData)
    USBH_BulkSendData                        0x08007b27   Thumb Code    94  usbh_ioreq.o(i.USBH_BulkSendData)
    USBH_ClrFeature                          0x08007b85   Thumb Code    76  usbh_stdreq.o(i.USBH_ClrFeature)
    USBH_Connected                           0x08007bd1   Thumb Code    12  usbh_core.o(i.USBH_Connected)
    USBH_CtlReceiveData                      0x08007bdd   Thumb Code    70  usbh_ioreq.o(i.USBH_CtlReceiveData)
    USBH_CtlReq                              0x08007c23   Thumb Code   100  usbh_ioreq.o(i.USBH_CtlReq)
    USBH_CtlSendData                         0x08007c87   Thumb Code   110  usbh_ioreq.o(i.USBH_CtlSendData)
    USBH_CtlSendSetup                        0x08007cf5   Thumb Code    66  usbh_ioreq.o(i.USBH_CtlSendSetup)
    USBH_DeAllocate_AllChannel               0x08007d37   Thumb Code    28  usbh_hcs.o(i.USBH_DeAllocate_AllChannel)
    USBH_DeInit                              0x08007d53   Thumb Code    58  usbh_core.o(i.USBH_DeInit)
    USBH_Disconnected                        0x08007d8d   Thumb Code    12  usbh_core.o(i.USBH_Disconnected)
    USBH_ErrorHandle                         0x08007d99   Thumb Code    46  usbh_core.o(i.USBH_ErrorHandle)
    USBH_Free_Channel                        0x08007dc7   Thumb Code    30  usbh_hcs.o(i.USBH_Free_Channel)
    USBH_GetDescriptor                       0x08007de5   Thumb Code    68  usbh_stdreq.o(i.USBH_GetDescriptor)
    USBH_GetNextDesc                         0x08007e51   Thumb Code    18  usbh_stdreq.o(i.USBH_GetNextDesc)
    USBH_Get_CfgDesc                         0x08007e65   Thumb Code    88  usbh_stdreq.o(i.USBH_Get_CfgDesc)
    USBH_Get_DevDesc                         0x08007ec1   Thumb Code    56  usbh_stdreq.o(i.USBH_Get_DevDesc)
    USBH_Get_StringDesc                      0x08007ef9   Thumb Code    60  usbh_stdreq.o(i.USBH_Get_StringDesc)
    USBH_HandleControl                       0x08007f35   Thumb Code   544  usbh_core.o(i.USBH_HandleControl)
    USBH_Init                                0x08008399   Thumb Code    68  usbh_core.o(i.USBH_Init)
    USBH_MSC_BOT_Abort                       0x08008401   Thumb Code    86  usbh_msc_bot.o(i.USBH_MSC_BOT_Abort)
    USBH_MSC_DecodeCSW                       0x08008475   Thumb Code   108  usbh_msc_bot.o(i.USBH_MSC_DecodeCSW)
    USBH_MSC_ErrorHandle                     0x080084f5   Thumb Code    58  usbh_msc_core.o(i.USBH_MSC_ErrorHandle)
    USBH_MSC_HandleBOTXfer                   0x08008789   Thumb Code   812  usbh_msc_bot.o(i.USBH_MSC_HandleBOTXfer)
    USBH_MSC_Init                            0x08008ad9   Thumb Code    44  usbh_msc_bot.o(i.USBH_MSC_Init)
    USBH_MSC_ModeSense6                      0x08008e1d   Thumb Code   198  usbh_msc_scsi.o(i.USBH_MSC_ModeSense6)
    USBH_MSC_Read10                          0x08008f1d   Thumb Code   242  usbh_msc_scsi.o(i.USBH_MSC_Read10)
    USBH_MSC_ReadCapacity10                  0x0800901d   Thumb Code   202  usbh_msc_scsi.o(i.USBH_MSC_ReadCapacity10)
    USBH_MSC_RequestSense                    0x080090f9   Thumb Code   208  usbh_msc_scsi.o(i.USBH_MSC_RequestSense)
    USBH_MSC_TestUnitReady                   0x080091d9   Thumb Code   162  usbh_msc_scsi.o(i.USBH_MSC_TestUnitReady)
    USBH_MSC_Write10                         0x08009289   Thumb Code   218  usbh_msc_scsi.o(i.USBH_MSC_Write10)
    USBH_Modify_Channel                      0x0800936d   Thumb Code   100  usbh_hcs.o(i.USBH_Modify_Channel)
    USBH_OTG_ISR_Handler                     0x080093d1   Thumb Code   168  usb_hcd_int.o(i.USBH_OTG_ISR_Handler)
    USBH_Open_Channel                        0x08009479   Thumb Code   154  usbh_hcs.o(i.USBH_Open_Channel)
    USBH_Process                             0x08009705   Thumb Code   408  usbh_core.o(i.USBH_Process)
    USBH_SOF                                 0x0800989d   Thumb Code     6  usbh_core.o(i.USBH_SOF)
    USBH_SetAddress                          0x080098a3   Thumb Code    38  usbh_stdreq.o(i.USBH_SetAddress)
    USBH_SetCfg                              0x080098c9   Thumb Code    38  usbh_stdreq.o(i.USBH_SetCfg)
    USBH_UDISK_Read                          0x08009909   Thumb Code    82  usbh_usr.o(i.USBH_UDISK_Read)
    USBH_UDISK_Status                        0x08009969   Thumb Code    12  usbh_usr.o(i.USBH_UDISK_Status)
    USBH_UDISK_Write                         0x08009979   Thumb Code    82  usbh_usr.o(i.USBH_UDISK_Write)
    USBH_USR_Configuration_DescAvailable     0x080099d9   Thumb Code    56  usbh_usr.o(i.USBH_USR_Configuration_DescAvailable)
    USBH_USR_DeInit                          0x08009a41   Thumb Code     8  usbh_usr.o(i.USBH_USR_DeInit)
    USBH_USR_DeviceAddressAssigned           0x08009a4d   Thumb Code    10  usbh_usr.o(i.USBH_USR_DeviceAddressAssigned)
    USBH_USR_DeviceAttached                  0x08009a6d   Thumb Code    16  usbh_usr.o(i.USBH_USR_DeviceAttached)
    USBH_USR_DeviceDisconnected              0x08009a99   Thumb Code    16  usbh_usr.o(i.USBH_USR_DeviceDisconnected)
    USBH_USR_DeviceNotSupported              0x08009abd   Thumb Code    10  usbh_usr.o(i.USBH_USR_DeviceNotSupported)
    USBH_USR_DeviceSpeedDetected             0x08009ae1   Thumb Code    46  usbh_usr.o(i.USBH_USR_DeviceSpeedDetected)
    USBH_USR_Device_DescAvailable            0x08009b59   Thumb Code    24  usbh_usr.o(i.USBH_USR_Device_DescAvailable)
    USBH_USR_EnumerationDone                 0x08009b91   Thumb Code    10  usbh_usr.o(i.USBH_USR_EnumerationDone)
    USBH_USR_Init                            0x08009bb1   Thumb Code    22  usbh_usr.o(i.USBH_USR_Init)
    USBH_USR_MSC_Application                 0x08009c21   Thumb Code    56  usbh_usr.o(i.USBH_USR_MSC_Application)
    USBH_USR_Manufacturer_String             0x08009c75   Thumb Code    14  usbh_usr.o(i.USBH_USR_Manufacturer_String)
    USBH_USR_OverCurrentDetected             0x08009c99   Thumb Code    10  usbh_usr.o(i.USBH_USR_OverCurrentDetected)
    USBH_USR_Product_String                  0x08009cb9   Thumb Code    14  usbh_usr.o(i.USBH_USR_Product_String)
    USBH_USR_ResetDevice                     0x08009cd9   Thumb Code    10  usbh_usr.o(i.USBH_USR_ResetDevice)
    USBH_USR_SerialNum_String                0x08009cf5   Thumb Code    14  usbh_usr.o(i.USBH_USR_SerialNum_String)
    USBH_USR_UnrecoveredError                0x08009d19   Thumb Code    10  usbh_usr.o(i.USBH_USR_UnrecoveredError)
    USBH_USR_UserInput                       0x08009d3d   Thumb Code    12  usbh_usr.o(i.USBH_USR_UserInput)
    USB_OTG_BSP_ConfigVBUS                   0x08009d5d   Thumb Code     2  usb_bsp.o(i.USB_OTG_BSP_ConfigVBUS)
    USB_OTG_BSP_DriveVBUS                    0x08009d5f   Thumb Code     2  usb_bsp.o(i.USB_OTG_BSP_DriveVBUS)
    USB_OTG_BSP_EnableInterrupt              0x08009d61   Thumb Code    18  usb_bsp.o(i.USB_OTG_BSP_EnableInterrupt)
    USB_OTG_BSP_Init                         0x08009d75   Thumb Code    96  usb_bsp.o(i.USB_OTG_BSP_Init)
    USB_OTG_BSP_mDelay                       0x08009de1   Thumb Code    12  usb_bsp.o(i.USB_OTG_BSP_mDelay)
    USB_OTG_BSP_uDelay                       0x08009ded   Thumb Code    12  usb_bsp.o(i.USB_OTG_BSP_uDelay)
    USB_OTG_CoreInit                         0x08009df9   Thumb Code   294  usb_core.o(i.USB_OTG_CoreInit)
    USB_OTG_CoreInitHost                     0x08009f1f   Thumb Code   214  usb_core.o(i.USB_OTG_CoreInitHost)
    USB_OTG_DisableGlobalInt                 0x0800a065   Thumb Code    34  usb_core.o(i.USB_OTG_DisableGlobalInt)
    USB_OTG_DriveVbus                        0x0800a087   Thumb Code    92  usb_core.o(i.USB_OTG_DriveVbus)
    USB_OTG_EnableGlobalInt                  0x0800a117   Thumb Code    34  usb_core.o(i.USB_OTG_EnableGlobalInt)
    USB_OTG_EnableHostInt                    0x0800a139   Thumb Code   116  usb_core.o(i.USB_OTG_EnableHostInt)
    USB_OTG_FlushRxFifo                      0x0800a1ad   Thumb Code    70  usb_core.o(i.USB_OTG_FlushRxFifo)
    USB_OTG_FlushTxFifo                      0x0800a1f9   Thumb Code    80  usb_core.o(i.USB_OTG_FlushTxFifo)
    USB_OTG_GetMode                          0x0800a24d   Thumb Code    12  usb_core.o(i.USB_OTG_GetMode)
    USB_OTG_HC_DoPing                        0x0800a259   Thumb Code    90  usb_core.o(i.USB_OTG_HC_DoPing)
    USB_OTG_HC_Halt                          0x0800a2b3   Thumb Code   130  usb_core.o(i.USB_OTG_HC_Halt)
    USB_OTG_HC_Init                          0x0800a335   Thumb Code   568  usb_core.o(i.USB_OTG_HC_Init)
    USB_OTG_HC_StartXfer                     0x0800a56d   Thumb Code   502  usb_core.o(i.USB_OTG_HC_StartXfer)
    USB_OTG_InitFSLSPClkSel                  0x0800a763   Thumb Code    24  usb_core.o(i.USB_OTG_InitFSLSPClkSel)
    USB_OTG_IsEvenFrame                      0x0800a77b   Thumb Code    16  usb_core.o(i.USB_OTG_IsEvenFrame)
    USB_OTG_IsHostMode                       0x0800a78b   Thumb Code    20  usb_core.o(i.USB_OTG_IsHostMode)
    USB_OTG_ReadCoreItr                      0x0800a79f   Thumb Code    16  usb_core.o(i.USB_OTG_ReadCoreItr)
    USB_OTG_ReadHPRT0                        0x0800a7af   Thumb Code    48  usb_core.o(i.USB_OTG_ReadHPRT0)
    USB_OTG_ReadHostAllChannels_intr         0x0800a7df   Thumb Code     8  usb_core.o(i.USB_OTG_ReadHostAllChannels_intr)
    USB_OTG_ReadPacket                       0x0800a7e7   Thumb Code    40  usb_core.o(i.USB_OTG_ReadPacket)
    USB_OTG_ResetPort                        0x0800a80f   Thumb Code    64  usb_core.o(i.USB_OTG_ResetPort)
    USB_OTG_SelectCore                       0x0800a851   Thumb Code   204  usb_core.o(i.USB_OTG_SelectCore)
    USB_OTG_SetCurrentMode                   0x0800a921   Thumb Code    78  usb_core.o(i.USB_OTG_SetCurrentMode)
    USB_OTG_WritePacket                      0x0800b755   Thumb Code    64  usb_core.o(i.USB_OTG_WritePacket)
    USH_User_App                             0x0800b795   Thumb Code   272  test.o(i.USH_User_App)
    W25QXX_Erase_Sector                      0x0800b91d   Thumb Code    70  w25qxx.o(i.W25QXX_Erase_Sector)
    W25QXX_Init                              0x0800b975   Thumb Code   106  w25qxx.o(i.W25QXX_Init)
    W25QXX_Read                              0x0800b9f5   Thumb Code    74  w25qxx.o(i.W25QXX_Read)
    W25QXX_ReadID                            0x0800ba45   Thumb Code    64  w25qxx.o(i.W25QXX_ReadID)
    W25QXX_ReadSR                            0x0800ba8d   Thumb Code    36  w25qxx.o(i.W25QXX_ReadSR)
    W25QXX_Wait_Busy                         0x0800bab9   Thumb Code    18  w25qxx.o(i.W25QXX_Wait_Busy)
    W25QXX_Write                             0x0800bacd   Thumb Code   180  w25qxx.o(i.W25QXX_Write)
    W25QXX_Write_Enable                      0x0800bb85   Thumb Code    24  w25qxx.o(i.W25QXX_Write_Enable)
    W25QXX_Write_NoCheck                     0x0800bba5   Thumb Code    70  w25qxx.o(i.W25QXX_Write_NoCheck)
    W25QXX_Write_Page                        0x0800bbed   Thumb Code    80  w25qxx.o(i.W25QXX_Write_Page)
    _is_digit                                0x0800bc41   Thumb Code    14  __printf_wp.o(i._is_digit)
    _sys_exit                                0x0800bc4f   Thumb Code     6  usart.o(i._sys_exit)
    ai_draw_init                             0x0800bc55   Thumb Code   216  piclib.o(i.ai_draw_init)
    ai_load_picfile                          0x0800bd35   Thumb Code   194  piclib.o(i.ai_load_picfile)
    char_upper                               0x0800c15d   Thumb Code    26  exfuns.o(i.char_upper)
    clust2sect                               0x0800c24f   Thumb Code    26  ff.o(i.clust2sect)
    convert_from_bytes_to_power_of_two       0x0800c2f9   Thumb Code    18  sdio_sdcard.o(i.convert_from_bytes_to_power_of_two)
    delay_init                               0x0800c7f9   Thumb Code    56  delay.o(i.delay_init)
    delay_ms                                 0x0800c839   Thumb Code    56  delay.o(i.delay_ms)
    delay_us                                 0x0800c871   Thumb Code    62  delay.o(i.delay_us)
    delay_xms                                0x0800c8b5   Thumb Code    56  delay.o(i.delay_xms)
    dir_sdi                                  0x0800cd9f   Thumb Code   158  ff.o(i.dir_sdi)
    disk_initialize                          0x0800ce3d   Thumb Code    70  diskio.o(i.disk_initialize)
    disk_ioctl                               0x0800ce89   Thumb Code   240  diskio.o(i.disk_ioctl)
    disk_read                                0x0800cf85   Thumb Code   140  diskio.o(i.disk_read)
    disk_status                              0x0800d011   Thumb Code     6  diskio.o(i.disk_status)
    disk_write                               0x0800d017   Thumb Code   140  diskio.o(i.disk_write)
    exf_getfree                              0x0800d0a3   Thumb Code    74  exfuns.o(i.exf_getfree)
    exfuns_init                              0x0800d0ed   Thumb Code   114  exfuns.o(i.exfuns_init)
    f_close                                  0x0800d171   Thumb Code    36  ff.o(i.f_close)
    f_closedir                               0x0800d195   Thumb Code    22  ff.o(i.f_closedir)
    f_getfree                                0x0800d1ab   Thumb Code   258  ff.o(i.f_getfree)
    f_getlabel                               0x0800d2ad   Thumb Code   190  ff.o(i.f_getlabel)
    f_gets                                   0x0800d36b   Thumb Code    82  ff.o(i.f_gets)
    f_lseek                                  0x0800d3bd   Thumb Code   654  ff.o(i.f_lseek)
    f_mkdir                                  0x0800d64b   Thumb Code   380  ff.o(i.f_mkdir)
    f_mkfs                                   0x0800d7c9   Thumb Code  1594  ff.o(i.f_mkfs)
    f_mount                                  0x0800de09   Thumb Code    86  ff.o(i.f_mount)
    f_open                                   0x0800de65   Thumb Code   384  ff.o(i.f_open)
    f_opendir                                0x0800dfe5   Thumb Code   136  ff.o(i.f_opendir)
    f_putc                                   0x0800e06d   Thumb Code    64  ff.o(i.f_putc)
    f_puts                                   0x0800e0ad   Thumb Code    74  ff.o(i.f_puts)
    f_read                                   0x0800e0f7   Thumb Code   432  ff.o(i.f_read)
    f_readdir                                0x0800e2a7   Thumb Code   114  ff.o(i.f_readdir)
    f_rename                                 0x0800e319   Thumb Code   314  ff.o(i.f_rename)
    f_setlabel                               0x0800e455   Thumb Code   470  ff.o(i.f_setlabel)
    f_sync                                   0x0800e63d   Thumb Code   176  ff.o(i.f_sync)
    f_typetell                               0x0800e6ed   Thumb Code   172  exfuns.o(i.f_typetell)
    f_unlink                                 0x0800e79d   Thumb Code   194  ff.o(i.f_unlink)
    f_write                                  0x0800e85f   Thumb Code   490  ff.o(i.f_write)
    ff_convert                               0x0800ea49   Thumb Code   146  mycc936.o(i.ff_convert)
    ff_memalloc                              0x0800eae1   Thumb Code    14  diskio.o(i.ff_memalloc)
    ff_memfree                               0x0800eaef   Thumb Code    14  diskio.o(i.ff_memfree)
    ff_wtoupper                              0x0800eafd   Thumb Code    46  mycc936.o(i.ff_wtoupper)
    font_init                                0x0800efcd   Thumb Code    64  fontupd.o(i.font_init)
    fputc                                    0x0800f011   Thumb Code    22  usart.o(i.fputc)
    get_fat                                  0x0800f0f5   Thumb Code   232  ff.o(i.get_fat)
    get_fattime                              0x0800f1dd   Thumb Code     4  diskio.o(i.get_fattime)
    gif_check_head                           0x0800f337   Thumb Code    88  gif.o(i.gif_check_head)
    gif_clear2bkcolor                        0x0800f391   Thumb Code   496  gif.o(i.gif_clear2bkcolor)
    gif_decode                               0x0800f585   Thumb Code   296  gif.o(i.gif_decode)
    gif_dispimage                            0x0800f6b1   Thumb Code   538  gif.o(i.gif_dispimage)
    gif_drawimage                            0x0800f8d9   Thumb Code   340  gif.o(i.gif_drawimage)
    gif_getdatablock                         0x0800fa2d   Thumb Code    96  gif.o(i.gif_getdatablock)
    gif_getinfo                              0x0800fa8d   Thumb Code    70  gif.o(i.gif_getinfo)
    gif_getnextbyte                          0x0800fad3   Thumb Code   856  gif.o(i.gif_getnextbyte)
    gif_getnextcode                          0x0800fe2d   Thumb Code   452  gif.o(i.gif_getnextcode)
    gif_getrgb565                            0x0800fff5   Thumb Code    28  gif.o(i.gif_getrgb565)
    gif_initlzw                              0x08010011   Thumb Code   152  gif.o(i.gif_initlzw)
    gif_readcolortbl                         0x080100a9   Thumb Code    64  gif.o(i.gif_readcolortbl)
    gif_readextension                        0x080100e9   Thumb Code   160  gif.o(i.gif_readextension)
    gif_recovergctbl                         0x08010189   Thumb Code    38  gif.o(i.gif_recovergctbl)
    gif_savegctbl                            0x080101af   Thumb Code    38  gif.o(i.gif_savegctbl)
    is_element_ok                            0x08010295   Thumb Code    36  piclib.o(i.is_element_ok)
    jd_decomp                                0x080102bd   Thumb Code   162  tjpgd.o(i.jd_decomp)
    jd_prepare                               0x0801035f   Thumb Code   924  tjpgd.o(i.jd_prepare)
    jpeg_freeall                             0x080106fd   Thumb Code    28  tjpgd.o(i.jpeg_freeall)
    jpeg_in_func                             0x08010725   Thumb Code    48  tjpgd.o(i.jpeg_in_func)
    jpeg_mallocall                           0x08010755   Thumb Code    70  tjpgd.o(i.jpeg_mallocall)
    jpeg_out_func_fill                       0x080107a9   Thumb Code    74  tjpgd.o(i.jpeg_out_func_fill)
    jpeg_out_func_point                      0x080107fd   Thumb Code   182  tjpgd.o(i.jpeg_out_func_point)
    jpg_decode                               0x080108bd   Thumb Code   232  tjpgd.o(i.jpg_decode)
    main                                     0x080109e1   Thumb Code   388  test.o(i.main)
    md_send                                  0x08011185   Thumb Code   110  usbh_usr.o(i.md_send)
    mf_close                                 0x080112a5   Thumb Code    14  fattester.o(i.mf_close)
    mf_closedir                              0x080112b9   Thumb Code    10  fattester.o(i.mf_closedir)
    mf_fmkfs                                 0x080112c9   Thumb Code    20  fattester.o(i.mf_fmkfs)
    mf_getlabel                              0x080112dd   Thumb Code    58  fattester.o(i.mf_getlabel)
    mf_gets                                  0x08011361   Thumb Code    38  fattester.o(i.mf_gets)
    mf_lseek                                 0x080113ad   Thumb Code    16  fattester.o(i.mf_lseek)
    mf_mkdir                                 0x080113c1   Thumb Code    12  fattester.o(i.mf_mkdir)
    mf_mount                                 0x080113cd   Thumb Code    20  fattester.o(i.mf_mount)
    mf_open                                  0x080113e5   Thumb Code    24  fattester.o(i.mf_open)
    mf_opendir                               0x08011401   Thumb Code    14  fattester.o(i.mf_opendir)
    mf_putc                                  0x08011415   Thumb Code    18  fattester.o(i.mf_putc)
    mf_puts                                  0x0801142d   Thumb Code    18  fattester.o(i.mf_puts)
    mf_read                                  0x08011445   Thumb Code   224  fattester.o(i.mf_read)
    mf_readdir                               0x0801159d   Thumb Code   204  fattester.o(i.mf_readdir)
    mf_rename                                0x08011731   Thumb Code    16  fattester.o(i.mf_rename)
    mf_scan_files                            0x08011741   Thumb Code   120  fattester.o(i.mf_scan_files)
    mf_setlabel                              0x080117d1   Thumb Code    34  fattester.o(i.mf_setlabel)
    mf_showfree                              0x0801182d   Thumb Code    88  fattester.o(i.mf_showfree)
    mf_size                                  0x080118d5   Thumb Code     8  fattester.o(i.mf_size)
    mf_tell                                  0x080118e1   Thumb Code     8  fattester.o(i.mf_tell)
    mf_unlink                                0x080118ed   Thumb Code    12  fattester.o(i.mf_unlink)
    mf_write                                 0x080118f9   Thumb Code    68  fattester.o(i.mf_write)
    minibmp_decode                           0x080119b1   Thumb Code   966  bmp.o(i.minibmp_decode)
    my_mem_free                              0x08011db5   Thumb Code    96  malloc.o(i.my_mem_free)
    my_mem_init                              0x08011e21   Thumb Code    54  malloc.o(i.my_mem_init)
    my_mem_malloc                            0x08011e65   Thumb Code   156  malloc.o(i.my_mem_malloc)
    my_mem_perused                           0x08011f0d   Thumb Code    54  malloc.o(i.my_mem_perused)
    myfree                                   0x08011f4d   Thumb Code    30  malloc.o(i.myfree)
    mymalloc                                 0x08011f71   Thumb Code    34  malloc.o(i.mymalloc)
    mymemset                                 0x08011f99   Thumb Code    20  malloc.o(i.mymemset)
    opt_delay                                0x08011fad   Thumb Code    14  ili93xx.o(i.opt_delay)
    pic_memalloc                             0x08011fbb   Thumb Code    14  piclib.o(i.pic_memalloc)
    pic_memfree                              0x08011fc9   Thumb Code    14  piclib.o(i.pic_memfree)
    piclib_alpha_blend                       0x0801204d   Thumb Code    42  piclib.o(i.piclib_alpha_blend)
    piclib_draw_hline                        0x0801207d   Thumb Code    52  piclib.o(i.piclib_draw_hline)
    piclib_fill_color                        0x080120b5   Thumb Code    44  piclib.o(i.piclib_fill_color)
    piclib_init                              0x080120e1   Thumb Code    58  piclib.o(i.piclib_init)
    put_fat                                  0x0801213d   Thumb Code   310  ff.o(i.put_fat)
    read_addr                                0x080122b7   Thumb Code     6  usmart.o(i.read_addr)
    stdbmp_decode                            0x080123a9   Thumb Code   712  bmp.o(i.stdbmp_decode)
    uart_init                                0x080127ad   Thumb Code   240  usart.o(i.uart_init)
    usmart_cmd_rec                           0x080128ad   Thumb Code   170  usmart.o(i.usmart_cmd_rec)
    usmart_exe                               0x0801295d   Thumb Code   632  usmart.o(i.usmart_exe)
    usmart_get_aparm                         0x08012c31   Thumb Code   212  usmart_str.o(i.usmart_get_aparm)
    usmart_get_cmdname                       0x08012d05   Thumb Code    54  usmart_str.o(i.usmart_get_cmdname)
    usmart_get_fname                         0x08012d3d   Thumb Code   440  usmart_str.o(i.usmart_get_fname)
    usmart_get_fparam                        0x08012efd   Thumb Code   262  usmart_str.o(i.usmart_get_fparam)
    usmart_get_parmpos                       0x08013009   Thumb Code    26  usmart_str.o(i.usmart_get_parmpos)
    usmart_get_runtime                       0x08013029   Thumb Code    56  usmart.o(i.usmart_get_runtime)
    usmart_init                              0x08013069   Thumb Code    36  usmart.o(i.usmart_init)
    usmart_pow                               0x08013091   Thumb Code    22  usmart_str.o(i.usmart_pow)
    usmart_reset_runtime                     0x080130a9   Thumb Code    38  usmart.o(i.usmart_reset_runtime)
    usmart_scan                              0x080130d9   Thumb Code   120  usmart.o(i.usmart_scan)
    usmart_search_nextc                      0x08013195   Thumb Code    22  usmart_str.o(i.usmart_search_nextc)
    usmart_str2num                           0x080131ab   Thumb Code   262  usmart_str.o(i.usmart_str2num)
    usmart_strcmp                            0x080132b1   Thumb Code    34  usmart_str.o(i.usmart_strcmp)
    usmart_strcopy                           0x080132d3   Thumb Code    22  usmart_str.o(i.usmart_strcopy)
    usmart_strlen                            0x080132e9   Thumb Code    24  usmart_str.o(i.usmart_strlen)
    usmart_sys_cmd_exe                       0x08013301   Thumb Code  1570  usmart.o(i.usmart_sys_cmd_exe)
    write_addr                               0x08013a2b   Thumb Code     4  usmart.o(i.write_addr)
    _fp_init                                 0x08013a2f   Thumb Code    10  fpinit.o(x$fpl$fpinit)
    __fplib_config_fpu_vfp                   0x08013a37   Thumb Code     0  fpinit.o(x$fpl$fpinit)
    __fplib_config_pureend_doubles           0x08013a37   Thumb Code     0  fpinit.o(x$fpl$fpinit)
    asc2_1206                                0x08013a38   Data        1140  ili93xx.o(.constdata)
    asc2_1608                                0x08013eac   Data        1520  ili93xx.o(.constdata)
    asc2_2412                                0x0801449c   Data        3420  ili93xx.o(.constdata)
    memtblsize                               0x080151f8   Data          12  malloc.o(.constdata)
    memblksize                               0x08015204   Data          12  malloc.o(.constdata)
    memsize                                  0x08015210   Data          12  malloc.o(.constdata)
    FILE_TYPE_TBL                            0x08015258   Data         112  exfuns.o(.constdata)
    _aMaskTbl                                0x08015688   Data          32  gif.o(.constdata)
    _aInterlaceOffset                        0x080156a8   Data           4  gif.o(.constdata)
    _aInterlaceYPos                          0x080156ac   Data           4  gif.o(.constdata)
    Region$$Table$$Base                      0x08015f70   Number         0  anon$$obj.o(Region$$Table)
    Region$$Table$$Limit                     0x08015f90   Number         0  anon$$obj.o(Region$$Table)
    mem3base                                 0x10000000   Data       61440  malloc.o(.ARM.__AT_0x10000000)
    mem3mapbase                              0x1000f000   Data        3840  malloc.o(.ARM.__AT_0x1000F000)
    __stdout                                 0x20000004   Data           4  usart.o(.data)
    USART_RX_STA                             0x20000008   Data           2  usart.o(.data)
    POINT_COLOR                              0x2000000a   Data           2  ili93xx.o(.data)
    BACK_COLOR                               0x2000000c   Data           2  ili93xx.o(.data)
    TransferError                            0x2000001a   Data           1  sdio_sdcard.o(.data)
    TransferEnd                              0x2000001b   Data           1  sdio_sdcard.o(.data)
    tempbuff                                 0x2000001c   Data           4  sdio_sdcard.o(.data)
    W25QXX_TYPE                              0x20000020   Data           2  w25qxx.o(.data)
    mallco_dev                               0x20000024   Data          36  malloc.o(.data)
    FLASH_SECTOR_COUNT                       0x2000004a   Data           2  diskio.o(.data)
    file                                     0x2000004c   Data           4  exfuns.o(.data)
    ftemp                                    0x20000050   Data           4  exfuns.o(.data)
    br                                       0x20000054   Data           4  exfuns.o(.data)
    bw                                       0x20000058   Data           4  exfuns.o(.data)
    fatbuf                                   0x2000005c   Data           4  exfuns.o(.data)
    gifdecoding                              0x20000060   Data           1  gif.o(.data)
    f_jpeg                                   0x20000064   Data           4  tjpgd.o(.data)
    jpeg_dev                                 0x20000068   Data           4  tjpgd.o(.data)
    jpg_buffer                               0x2000006c   Data           4  tjpgd.o(.data)
    sys_cmd_tab                              0x20000070   Data          28  usmart.o(.data)
    usmart_nametab                           0x2000008c   Data         224  usmart_config.o(.data)
    usmart_dev                               0x2000016c   Data         244  usmart_config.o(.data)
    USBH_HCD_INT_cb                          0x20000260   Data          12  usbh_core.o(.data)
    USBH_HCD_INT_fops                        0x2000026c   Data           4  usbh_core.o(.data)
    MSC_Setup                                0x2000028c   Data           8  usbh_msc_core.o(.data)
    MSCErrorCount                            0x20000294   Data           1  usbh_msc_core.o(.data)
    USBH_MSC_cb                              0x20000298   Data          16  usbh_msc_core.o(.data)
    USR_Callbacks                            0x200002b0   Data          72  usbh_usr.o(.data)
    line                                     0x200002f8   Data           4  usbusr.o(.data)
    Receive_Retry                            0x200002fc   Data           2  usbusr.o(.data)
    sendTime                                 0x200002fe   Data           1  usbusr.o(.data)
    toggle_out                               0x200002ff   Data           1  usbusr.o(.data)
    sendlen                                  0x20000300   Data           2  usbusr.o(.data)
    SendMechine                              0x20000302   Data           1  usbusr.o(.data)
    SendCount                                0x20000304   Data           4  usbusr.o(.data)
    ReceiveMechine                           0x20000308   Data           1  usbusr.o(.data)
    ReceiveCount                             0x2000030c   Data           4  usbusr.o(.data)
    dataReceived                             0x20000310   Data           4  usbusr.o(.data)
    over_flag                                0x20000314   Data           1  usbusr.o(.data)
    i                                        0x20000320   Data           4  usbusr.o(.data)
    j                                        0x20000324   Data           4  usbusr.o(.data)
    flag                                     0x20000328   Data           4  usbusr.o(.data)
    gsend_flag                               0x2000032c   Data           4  usbusr.o(.data)
    rec_len                                  0x20000330   Data           2  usbusr.o(.data)
    toggle_out_flag                          0x20000334   Data           4  usbusr.o(.data)
    buf_num                                  0x20000338   Data           4  usbusr.o(.data)
    first_into                               0x2000033c   Data           1  usbusr.o(.data)
    first_config                             0x2000033d   Data           1  usbusr.o(.data)
    first_machine                            0x2000033e   Data           1  usbusr.o(.data)
    config_finish                            0x2000033f   Data           1  usbusr.o(.data)
    send_finish                              0x20000340   Data           1  usbusr.o(.data)
    gsend_status                             0x20000341   Data           1  usbusr.o(.data)
    myClass                                  0x20000342   Data           8  usbusr.o(.data)
    Class_cb                                 0x2000034c   Data          16  usbusr.o(.data)
    USB_Host                                 0x2000035c   Data         140  test.o(.bss)
    USB_OTG_Core                             0x200003e8   Data        1456  test.o(.bss)
    USART_RX_BUF                             0x20000998   Data         200  usart.o(.bss)
    lcddev                                   0x20000a60   Data          14  ili93xx.o(.bss)
    SDCardInfo                               0x20000a90   Data          88  sdio_sdcard.o(.bss)
    SDIO_DATA_BUFFER                         0x20000ae8   Data         512  sdio_sdcard.o(.bss)
    W25QXX_BUFFER                            0x20000ce8   Data        4096  w25qxx.o(.bss)
    mem1base                                 0x20001d00   Data       102400  malloc.o(.bss)
    mem1mapbase                              0x2001ad00   Data        6400  malloc.o(.bss)
    fs                                       0x2001c60c   Data          12  exfuns.o(.bss)
    fileinfo                                 0x2001c618   Data          32  exfuns.o(.bss)
    dir                                      0x2001c638   Data          36  exfuns.o(.bss)
    ftinfo                                   0x2001c65c   Data          33  fontupd.o(.bss)
    picinfo                                  0x2001c680   Data          40  piclib.o(.bss)
    pic_phy                                  0x2001c6a8   Data          20  piclib.o(.bss)
    USBH_CfgDesc                             0x2001c6bc   Data         512  usbh_stdreq.o(.bss)
    USBH_MSC_CBWData                         0x2001c8bc   Data          32  usbh_msc_bot.o(.bss)
    USBH_MSC_CSWData                         0x2001c8dc   Data          16  usbh_msc_bot.o(.bss)
    USBH_MSC_BOTXferParam                    0x2001c8ec   Data          16  usbh_msc_bot.o(.bss)
    MSC_Machine                              0x2001c8fc   Data         522  usbh_msc_core.o(.bss)
    USBH_MSC_Param                           0x2001cb08   Data          16  usbh_msc_scsi.o(.bss)
    USBH_DataInBuffer                        0x2001cb18   Data         512  usbh_msc_scsi.o(.bss)
    USBH_DataOutBuffer                       0x2001cd18   Data         512  usbh_msc_scsi.o(.bss)
    fftemp                                   0x2001cf18   Data         552  usbusr.o(.bss)
    fftemp1                                  0x2001d140   Data         552  usbusr.o(.bss)
    buf                                      0x2001d368   Data         200  usbusr.o(.bss)
    usb_send                                 0x2001d430   Data          64  usbusr.o(.bss)
    usb_rec                                  0x2001d470   Data          64  usbusr.o(.bss)
    __libspace_start                         0x2001d4b0   Data          96  libspace.o(.bss)
    __temporary_stack_top$libspace           0x2001d510   Data           0  libspace.o(.bss)
    mem2base                                 0x68000000   Data       983040  malloc.o(.ARM.__AT_0x68000000)
    mem2mapbase                              0x680f0000   Data       61440  malloc.o(.ARM.__AT_0x680F0000)



==============================================================================

Memory Map of the image

  Image Entry point : 0x08000189

  Load Region LR_IROM1 (Base: 0x08000000, Size: 0x000162ec, Max: 0x00100000, ABSOLUTE, COMPRESSED[0x00016124])

    Execution Region ER_IROM1 (Base: 0x08000000, Size: 0x00015f90, Max: 0x00100000, ABSOLUTE)

    Base Addr    Size         Type   Attr      Idx    E Section Name        Object

    0x08000000   0x00000188   Data   RO            3    RESET               startup_stm32f40_41xxx.o
    0x08000188   0x00000008   Code   RO         3627  * !!!main             c_w.l(__main.o)
    0x08000190   0x00000034   Code   RO         3810    !!!scatter          c_w.l(__scatter.o)
    0x080001c4   0x0000005a   Code   RO         3808    !!dczerorl2         c_w.l(__dczerorl2.o)
    0x0800021e   0x00000002   PAD
    0x08000220   0x0000001c   Code   RO         3812    !!handler_zi        c_w.l(__scatter_zi.o)
    0x0800023c   0x00000000   Code   RO         3614    .ARM.Collect$$_printf_percent$$00000000  c_w.l(_printf_percent.o)
    0x0800023c   0x00000006   Code   RO         3612    .ARM.Collect$$_printf_percent$$00000009  c_w.l(_printf_d.o)
    0x08000242   0x00000006   Code   RO         3613    .ARM.Collect$$_printf_percent$$0000000A  c_w.l(_printf_u.o)
    0x08000248   0x00000006   Code   RO         3611    .ARM.Collect$$_printf_percent$$0000000C  c_w.l(_printf_x.o)
    0x0800024e   0x00000006   Code   RO         3609    .ARM.Collect$$_printf_percent$$00000013  c_w.l(_printf_c.o)
    0x08000254   0x00000006   Code   RO         3610    .ARM.Collect$$_printf_percent$$00000014  c_w.l(_printf_s.o)
    0x0800025a   0x00000004   Code   RO         3640    .ARM.Collect$$_printf_percent$$00000017  c_w.l(_printf_percent_end.o)
    0x0800025e   0x00000002   Code   RO         3681    .ARM.Collect$$libinit$$00000000  c_w.l(libinit.o)
    0x08000260   0x00000004   Code   RO         3691    .ARM.Collect$$libinit$$00000001  c_w.l(libinit2.o)
    0x08000264   0x00000000   Code   RO         3695    .ARM.Collect$$libinit$$00000008  c_w.l(libinit2.o)
    0x08000264   0x00000000   Code   RO         3697    .ARM.Collect$$libinit$$0000000A  c_w.l(libinit2.o)
    0x08000264   0x00000000   Code   RO         3699    .ARM.Collect$$libinit$$0000000C  c_w.l(libinit2.o)
    0x08000264   0x00000000   Code   RO         3702    .ARM.Collect$$libinit$$0000000F  c_w.l(libinit2.o)
    0x08000264   0x00000000   Code   RO         3704    .ARM.Collect$$libinit$$00000011  c_w.l(libinit2.o)
    0x08000264   0x00000000   Code   RO         3706    .ARM.Collect$$libinit$$00000013  c_w.l(libinit2.o)
    0x08000264   0x00000000   Code   RO         3708    .ARM.Collect$$libinit$$00000015  c_w.l(libinit2.o)
    0x08000264   0x00000000   Code   RO         3710    .ARM.Collect$$libinit$$00000017  c_w.l(libinit2.o)
    0x08000264   0x00000000   Code   RO         3712    .ARM.Collect$$libinit$$00000019  c_w.l(libinit2.o)
    0x08000264   0x00000000   Code   RO         3714    .ARM.Collect$$libinit$$0000001B  c_w.l(libinit2.o)
    0x08000264   0x00000000   Code   RO         3716    .ARM.Collect$$libinit$$0000001D  c_w.l(libinit2.o)
    0x08000264   0x00000000   Code   RO         3718    .ARM.Collect$$libinit$$0000001F  c_w.l(libinit2.o)
    0x08000264   0x00000000   Code   RO         3720    .ARM.Collect$$libinit$$00000021  c_w.l(libinit2.o)
    0x08000264   0x00000000   Code   RO         3722    .ARM.Collect$$libinit$$00000023  c_w.l(libinit2.o)
    0x08000264   0x00000000   Code   RO         3726    .ARM.Collect$$libinit$$0000002A  c_w.l(libinit2.o)
    0x08000264   0x00000000   Code   RO         3728    .ARM.Collect$$libinit$$0000002C  c_w.l(libinit2.o)
    0x08000264   0x00000000   Code   RO         3730    .ARM.Collect$$libinit$$0000002E  c_w.l(libinit2.o)
    0x08000264   0x00000000   Code   RO         3732    .ARM.Collect$$libinit$$00000030  c_w.l(libinit2.o)
    0x08000264   0x00000002   Code   RO         3733    .ARM.Collect$$libinit$$00000031  c_w.l(libinit2.o)
    0x08000266   0x00000002   Code   RO         3761    .ARM.Collect$$libshutdown$$00000000  c_w.l(libshutdown.o)
    0x08000268   0x00000000   Code   RO         3776    .ARM.Collect$$libshutdown$$00000003  c_w.l(libshutdown2.o)
    0x08000268   0x00000000   Code   RO         3779    .ARM.Collect$$libshutdown$$00000006  c_w.l(libshutdown2.o)
    0x08000268   0x00000000   Code   RO         3782    .ARM.Collect$$libshutdown$$00000009  c_w.l(libshutdown2.o)
    0x08000268   0x00000000   Code   RO         3784    .ARM.Collect$$libshutdown$$0000000B  c_w.l(libshutdown2.o)
    0x08000268   0x00000000   Code   RO         3787    .ARM.Collect$$libshutdown$$0000000E  c_w.l(libshutdown2.o)
    0x08000268   0x00000002   Code   RO         3788    .ARM.Collect$$libshutdown$$0000000F  c_w.l(libshutdown2.o)
    0x0800026a   0x00000000   Code   RO         3631    .ARM.Collect$$rtentry$$00000000  c_w.l(rtentry.o)
    0x0800026a   0x00000000   Code   RO         3644    .ARM.Collect$$rtentry$$00000002  c_w.l(rtentry2.o)
    0x0800026a   0x00000006   Code   RO         3656    .ARM.Collect$$rtentry$$00000004  c_w.l(rtentry4.o)
    0x08000270   0x00000000   Code   RO         3646    .ARM.Collect$$rtentry$$00000009  c_w.l(rtentry2.o)
    0x08000270   0x00000004   Code   RO         3647    .ARM.Collect$$rtentry$$0000000A  c_w.l(rtentry2.o)
    0x08000274   0x00000000   Code   RO         3649    .ARM.Collect$$rtentry$$0000000C  c_w.l(rtentry2.o)
    0x08000274   0x00000008   Code   RO         3650    .ARM.Collect$$rtentry$$0000000D  c_w.l(rtentry2.o)
    0x0800027c   0x00000002   Code   RO         3685    .ARM.Collect$$rtexit$$00000000  c_w.l(rtexit.o)
    0x0800027e   0x00000000   Code   RO         3735    .ARM.Collect$$rtexit$$00000002  c_w.l(rtexit2.o)
    0x0800027e   0x00000004   Code   RO         3736    .ARM.Collect$$rtexit$$00000003  c_w.l(rtexit2.o)
    0x08000282   0x00000006   Code   RO         3737    .ARM.Collect$$rtexit$$00000004  c_w.l(rtexit2.o)
    0x08000288   0x00000010   Code   RO          276    .emb_text           sys.o
    0x08000298   0x00000044   Code   RO            4    .text               startup_stm32f40_41xxx.o
    0x080002dc   0x00000002   Code   RO         3552    .text               c_w.l(use_no_semi_2.o)
    0x080002de   0x00000048   Code   RO         3554    .text               c_w.l(llsdiv.o)
    0x08000326   0x00000002   PAD
    0x08000328   0x00000018   Code   RO         3558    .text               c_w.l(noretval__2printf.o)
    0x08000340   0x0000004e   Code   RO         3562    .text               c_w.l(_printf_pad.o)
    0x0800038e   0x00000052   Code   RO         3564    .text               c_w.l(_printf_str.o)
    0x080003e0   0x00000074   Code   RO         3566    .text               c_w.l(_printf_dec.o)
    0x08000454   0x00000058   Code   RO         3571    .text               c_w.l(_printf_hex_int.o)
    0x080004ac   0x00000188   Code   RO         3606    .text               c_w.l(__printf_flags_ss_wp.o)
    0x08000634   0x00000048   Code   RO         3615    .text               c_w.l(strcpy.o)
    0x0800067c   0x0000003e   Code   RO         3617    .text               c_w.l(strlen.o)
    0x080006ba   0x0000008a   Code   RO         3621    .text               c_w.l(rt_memcpy_v6.o)
    0x08000744   0x00000080   Code   RO         3623    .text               c_w.l(strcmpv7m.o)
    0x080007c4   0x00000006   Code   RO         3625    .text               c_w.l(heapauxi.o)
    0x080007ca   0x00000002   Code   RO         3629    .text               c_w.l(use_no_semi.o)
    0x080007cc   0x000000ee   Code   RO         3632    .text               c_w.l(lludivv7m.o)
    0x080008ba   0x000000b2   Code   RO         3634    .text               c_w.l(_printf_intcommon.o)
    0x0800096c   0x0000002c   Code   RO         3636    .text               c_w.l(_printf_char.o)
    0x08000998   0x00000024   Code   RO         3638    .text               c_w.l(_printf_char_file.o)
    0x080009bc   0x00000064   Code   RO         3641    .text               c_w.l(rt_memcpy_w.o)
    0x08000a20   0x00000030   Code   RO         3662    .text               c_w.l(_printf_char_common.o)
    0x08000a50   0x00000008   Code   RO         3664    .text               c_w.l(ferror.o)
    0x08000a58   0x0000004a   Code   RO         3668    .text               c_w.l(sys_stackheap_outer.o)
    0x08000aa2   0x0000000c   Code   RO         3674    .text               c_w.l(exit.o)
    0x08000aae   0x00000002   PAD
    0x08000ab0   0x00000008   Code   RO         3682    .text               c_w.l(libspace.o)
    0x08000ab8   0x00000038   Code   RO          672    i.CmdError          sdio_sdcard.o
    0x08000af0   0x00000060   Code   RO          673    i.CmdResp1Error     sdio_sdcard.o
    0x08000b50   0x00000068   Code   RO          674    i.CmdResp2Error     sdio_sdcard.o
    0x08000bb8   0x00000040   Code   RO          675    i.CmdResp3Error     sdio_sdcard.o
    0x08000bf8   0x000000a0   Code   RO          676    i.CmdResp6Error     sdio_sdcard.o
    0x08000c98   0x0000005c   Code   RO          677    i.CmdResp7Error     sdio_sdcard.o
    0x08000cf4   0x00000058   Code   RO         3496    i.DeInit            usbusr.o
    0x08000d4c   0x0000015c   Code   RO          678    i.FindSCR           sdio_sdcard.o
    0x08000ea8   0x00000040   Code   RO          278    i.GPIO_AF_Set       sys.o
    0x08000ee8   0x000000de   Code   RO          279    i.GPIO_Set          sys.o
    0x08000fc6   0x00000002   PAD
    0x08000fc8   0x000000e0   Code   RO         1861    i.Get_HzMat         text.o
    0x080010a8   0x0000000a   Code   RO         2666    i.HCD_GetCurrentFrame  usb_hcd.o
    0x080010b2   0x00000014   Code   RO         2667    i.HCD_GetCurrentSpeed  usb_hcd.o
    0x080010c6   0x0000000a   Code   RO         2669    i.HCD_GetURB_State  usb_hcd.o
    0x080010d0   0x0000000c   Code   RO         2670    i.HCD_GetXferCnt    usb_hcd.o
    0x080010dc   0x00000060   Code   RO         2672    i.HCD_Init          usb_hcd.o
    0x0800113c   0x00000008   Code   RO         2673    i.HCD_IsDeviceConnected  usb_hcd.o
    0x08001144   0x0000000e   Code   RO         2674    i.HCD_ResetPort     usb_hcd.o
    0x08001152   0x00000020   Code   RO         2675    i.HCD_SubmitRequest  usb_hcd.o
    0x08001172   0x00000002   PAD
    0x08001174   0x0000010c   Code   RO         3497    i.Init              usbusr.o
    0x08001280   0x0000009c   Code   RO          679    i.IsCardProgramming  sdio_sdcard.o
    0x0800131c   0x00000050   Code   RO          642    i.KEY_Init          key.o
    0x0800136c   0x0000001a   Code   RO          426    i.LCD_BGR2RGB       ili93xx.o
    0x08001386   0x00000002   PAD
    0x08001388   0x0000006c   Code   RO          427    i.LCD_Clear         ili93xx.o
    0x080013f4   0x00000060   Code   RO          428    i.LCD_Color_Fill    ili93xx.o
    0x08001454   0x00000170   Code   RO          431    i.LCD_Display_Dir   ili93xx.o
    0x080015c4   0x00000120   Code   RO          436    i.LCD_Fast_DrawPoint  ili93xx.o
    0x080016e4   0x000000b8   Code   RO          437    i.LCD_Fill          ili93xx.o
    0x0800179c   0x00003754   Code   RO          438    i.LCD_Init          ili93xx.o
    0x08004ef0   0x00000016   Code   RO          439    i.LCD_Pow           ili93xx.o
    0x08004f06   0x00000002   PAD
    0x08004f08   0x00000014   Code   RO          440    i.LCD_RD_DATA       ili93xx.o
    0x08004f1c   0x00000168   Code   RO          441    i.LCD_ReadPoint     ili93xx.o
    0x08005084   0x00000016   Code   RO          442    i.LCD_ReadReg       ili93xx.o
    0x0800509a   0x00000002   PAD
    0x0800509c   0x000002ac   Code   RO          443    i.LCD_Scan_Dir      ili93xx.o
    0x08005348   0x0000010c   Code   RO          444    i.LCD_SetCursor     ili93xx.o
    0x08005454   0x00000128   Code   RO          446    i.LCD_ShowChar      ili93xx.o
    0x0800557c   0x00000094   Code   RO          447    i.LCD_ShowNum       ili93xx.o
    0x08005610   0x00000066   Code   RO          448    i.LCD_ShowString    ili93xx.o
    0x08005676   0x00000002   PAD
    0x08005678   0x00000018   Code   RO          450    i.LCD_WR_DATA       ili93xx.o
    0x08005690   0x00000018   Code   RO          451    i.LCD_WR_REG        ili93xx.o
    0x080056a8   0x00000014   Code   RO          453    i.LCD_WriteRAM_Prepare  ili93xx.o
    0x080056bc   0x0000001c   Code   RO          454    i.LCD_WriteReg      ili93xx.o
    0x080056d8   0x00000040   Code   RO          403    i.LED_Init          led.o
    0x08005718   0x00000078   Code   RO          280    i.MY_NVIC_Init      sys.o
    0x08005790   0x00000028   Code   RO          281    i.MY_NVIC_PriorityGroupConfig  sys.o
    0x080057b8   0x00000010   Code   RO          282    i.MY_NVIC_SetVectorTable  sys.o
    0x080057c8   0x00000298   Code   RO         3498    i.My_Config         usbusr.o
    0x08005a60   0x00000348   Code   RO         3499    i.My_Machine        usbusr.o
    0x08005da8   0x00000010   Code   RO         3336    i.OTG_FS_IRQHandler  usbh_usr.o
    0x08005db8   0x00000006   Code   RO         3500    i.Requests          usbusr.o
    0x08005dbe   0x00000002   PAD
    0x08005dc0   0x00000080   Code   RO          680    i.SDEnWideBus       sdio_sdcard.o
    0x08005e40   0x00000014   Code   RO          681    i.SDIO_Clock_Set    sdio_sdcard.o
    0x08005e54   0x00000008   Code   RO          682    i.SDIO_IRQHandler   sdio_sdcard.o
    0x08005e5c   0x0000002c   Code   RO          683    i.SDIO_Send_Cmd     sdio_sdcard.o
    0x08005e88   0x00000038   Code   RO          684    i.SDIO_Send_Data_Cfg  sdio_sdcard.o
    0x08005ec0   0x00000094   Code   RO          685    i.SD_DMA_Config     sdio_sdcard.o
    0x08005f54   0x00000068   Code   RO          686    i.SD_EnableWideBusOperation  sdio_sdcard.o
    0x08005fbc   0x00000314   Code   RO          687    i.SD_GetCardInfo    sdio_sdcard.o
    0x080062d0   0x00000178   Code   RO          689    i.SD_Init           sdio_sdcard.o
    0x08006448   0x00000114   Code   RO          690    i.SD_InitializeCards  sdio_sdcard.o
    0x0800655c   0x00000180   Code   RO          692    i.SD_PowerON        sdio_sdcard.o
    0x080066dc   0x0000016c   Code   RO          693    i.SD_ProcessIRQSrc  sdio_sdcard.o
    0x08006848   0x0000024c   Code   RO          694    i.SD_ReadBlock      sdio_sdcard.o
    0x08006a94   0x000000a0   Code   RO          695    i.SD_ReadDisk       sdio_sdcard.o
    0x08006b34   0x000002c4   Code   RO          696    i.SD_ReadMultiBlocks  sdio_sdcard.o
    0x08006df8   0x00000016   Code   RO          697    i.SD_SelectDeselect  sdio_sdcard.o
    0x08006e0e   0x00000002   PAD
    0x08006e10   0x00000018   Code   RO          699    i.SD_SetDeviceMode  sdio_sdcard.o
    0x08006e28   0x00000344   Code   RO          700    i.SD_WriteBlock     sdio_sdcard.o
    0x0800716c   0x000000a0   Code   RO          701    i.SD_WriteDisk      sdio_sdcard.o
    0x0800720c   0x0000037c   Code   RO          702    i.SD_WriteMultiBlocks  sdio_sdcard.o
    0x08007588   0x000000b0   Code   RO          892    i.SPI1_Init         spi.o
    0x08007638   0x00000030   Code   RO          893    i.SPI1_ReadWriteByte  spi.o
    0x08007668   0x0000002c   Code   RO          894    i.SPI1_SetSpeed     spi.o
    0x08007694   0x000000c8   Code   RO         1862    i.Show_Font         text.o
    0x0800775c   0x000000c2   Code   RO         1863    i.Show_Str          text.o
    0x0800781e   0x00000002   PAD
    0x08007820   0x00000068   Code   RO          283    i.Stm32_Clock_Init  sys.o
    0x08007888   0x0000010c   Code   RO          284    i.Sys_Clock_Set     sys.o
    0x08007994   0x0000003c   Code   RO         2269    i.TIM4_IRQHandler   usmart.o
    0x080079d0   0x00000050   Code   RO         2270    i.Timer4_Init       usmart.o
    0x08007a20   0x00000080   Code   RO          354    i.USART1_IRQHandler  usart.o
    0x08007aa0   0x00000026   Code   RO         2886    i.USBH_Alloc_Channel  usbh_hcs.o
    0x08007ac6   0x00000060   Code   RO         2935    i.USBH_BulkReceiveData  usbh_ioreq.o
    0x08007b26   0x0000005e   Code   RO         2936    i.USBH_BulkSendData  usbh_ioreq.o
    0x08007b84   0x0000004c   Code   RO         3014    i.USBH_ClrFeature   usbh_stdreq.o
    0x08007bd0   0x0000000c   Code   RO         2813    i.USBH_Connected    usbh_core.o
    0x08007bdc   0x00000046   Code   RO         2937    i.USBH_CtlReceiveData  usbh_ioreq.o
    0x08007c22   0x00000064   Code   RO         2938    i.USBH_CtlReq       usbh_ioreq.o
    0x08007c86   0x0000006e   Code   RO         2939    i.USBH_CtlSendData  usbh_ioreq.o
    0x08007cf4   0x00000042   Code   RO         2940    i.USBH_CtlSendSetup  usbh_ioreq.o
    0x08007d36   0x0000001c   Code   RO         2887    i.USBH_DeAllocate_AllChannel  usbh_hcs.o
    0x08007d52   0x0000003a   Code   RO         2814    i.USBH_DeInit       usbh_core.o
    0x08007d8c   0x0000000c   Code   RO         2815    i.USBH_Disconnected  usbh_core.o
    0x08007d98   0x0000002e   Code   RO         2816    i.USBH_ErrorHandle  usbh_core.o
    0x08007dc6   0x0000001e   Code   RO         2888    i.USBH_Free_Channel  usbh_hcs.o
    0x08007de4   0x00000044   Code   RO         3015    i.USBH_GetDescriptor  usbh_stdreq.o
    0x08007e28   0x00000028   Code   RO         2889    i.USBH_GetFreeChannel  usbh_hcs.o
    0x08007e50   0x00000012   Code   RO         3016    i.USBH_GetNextDesc  usbh_stdreq.o
    0x08007e62   0x00000002   PAD
    0x08007e64   0x0000005c   Code   RO         3017    i.USBH_Get_CfgDesc  usbh_stdreq.o
    0x08007ec0   0x00000038   Code   RO         3018    i.USBH_Get_DevDesc  usbh_stdreq.o
    0x08007ef8   0x0000003c   Code   RO         3019    i.USBH_Get_StringDesc  usbh_stdreq.o
    0x08007f34   0x00000224   Code   RO         2817    i.USBH_HandleControl  usbh_core.o
    0x08008158   0x00000240   Code   RO         2818    i.USBH_HandleEnum   usbh_core.o
    0x08008398   0x00000044   Code   RO         2819    i.USBH_Init         usbh_core.o
    0x080083dc   0x00000024   Code   RO         3159    i.USBH_MSC_BOTReset  usbh_msc_core.o
    0x08008400   0x00000060   Code   RO         3114    i.USBH_MSC_BOT_Abort  usbh_msc_bot.o
    0x08008460   0x00000014   Code   RO         3160    i.USBH_MSC_ClassRequest  usbh_msc_core.o
    0x08008474   0x00000080   Code   RO         3115    i.USBH_MSC_DecodeCSW  usbh_msc_bot.o
    0x080084f4   0x00000044   Code   RO         3161    i.USBH_MSC_ErrorHandle  usbh_msc_core.o
    0x08008538   0x0000002c   Code   RO         3162    i.USBH_MSC_GETMaxLUN  usbh_msc_core.o
    0x08008564   0x00000224   Code   RO         3163    i.USBH_MSC_Handle   usbh_msc_core.o
    0x08008788   0x00000350   Code   RO         3116    i.USBH_MSC_HandleBOTXfer  usbh_msc_bot.o
    0x08008ad8   0x00000044   Code   RO         3117    i.USBH_MSC_Init     usbh_msc_bot.o
    0x08008b1c   0x0000004c   Code   RO         3164    i.USBH_MSC_InterfaceDeInit  usbh_msc_core.o
    0x08008b68   0x000002b4   Code   RO         3165    i.USBH_MSC_InterfaceInit  usbh_msc_core.o
    0x08008e1c   0x00000100   Code   RO         3220    i.USBH_MSC_ModeSense6  usbh_msc_scsi.o
    0x08008f1c   0x00000100   Code   RO         3221    i.USBH_MSC_Read10   usbh_msc_scsi.o
    0x0800901c   0x000000dc   Code   RO         3222    i.USBH_MSC_ReadCapacity10  usbh_msc_scsi.o
    0x080090f8   0x000000e0   Code   RO         3223    i.USBH_MSC_RequestSense  usbh_msc_scsi.o
    0x080091d8   0x000000b0   Code   RO         3224    i.USBH_MSC_TestUnitReady  usbh_msc_scsi.o
    0x08009288   0x000000e4   Code   RO         3225    i.USBH_MSC_Write10  usbh_msc_scsi.o
    0x0800936c   0x00000064   Code   RO         2890    i.USBH_Modify_Channel  usbh_hcs.o
    0x080093d0   0x000000a8   Code   RO         2743    i.USBH_OTG_ISR_Handler  usb_hcd_int.o
    0x08009478   0x0000009a   Code   RO         2891    i.USBH_Open_Channel  usbh_hcs.o
    0x08009512   0x00000002   PAD
    0x08009514   0x0000011c   Code   RO         3020    i.USBH_ParseCfgDesc  usbh_stdreq.o
    0x08009630   0x00000058   Code   RO         3021    i.USBH_ParseDevDesc  usbh_stdreq.o
    0x08009688   0x00000020   Code   RO         3022    i.USBH_ParseEPDesc  usbh_stdreq.o
    0x080096a8   0x00000026   Code   RO         3023    i.USBH_ParseInterfaceDesc  usbh_stdreq.o
    0x080096ce   0x00000036   Code   RO         3024    i.USBH_ParseStringDesc  usbh_stdreq.o
    0x08009704   0x00000198   Code   RO         2820    i.USBH_Process      usbh_core.o
    0x0800989c   0x00000006   Code   RO         2821    i.USBH_SOF          usbh_core.o
    0x080098a2   0x00000026   Code   RO         3025    i.USBH_SetAddress   usbh_stdreq.o
    0x080098c8   0x00000026   Code   RO         3026    i.USBH_SetCfg       usbh_stdreq.o
    0x080098ee   0x00000018   Code   RO         2945    i.USBH_SubmitSetupRequest  usbh_ioreq.o
    0x08009906   0x00000002   PAD
    0x08009908   0x00000060   Code   RO         3337    i.USBH_UDISK_Read   usbh_usr.o
    0x08009968   0x00000010   Code   RO         3338    i.USBH_UDISK_Status  usbh_usr.o
    0x08009978   0x00000060   Code   RO         3339    i.USBH_UDISK_Write  usbh_usr.o
    0x080099d8   0x00000068   Code   RO         3340    i.USBH_USR_Configuration_DescAvailable  usbh_usr.o
    0x08009a40   0x0000000c   Code   RO         3341    i.USBH_USR_DeInit   usbh_usr.o
    0x08009a4c   0x00000020   Code   RO         3342    i.USBH_USR_DeviceAddressAssigned  usbh_usr.o
    0x08009a6c   0x0000002c   Code   RO         3343    i.USBH_USR_DeviceAttached  usbh_usr.o
    0x08009a98   0x00000024   Code   RO         3344    i.USBH_USR_DeviceDisconnected  usbh_usr.o
    0x08009abc   0x00000024   Code   RO         3345    i.USBH_USR_DeviceNotSupported  usbh_usr.o
    0x08009ae0   0x00000078   Code   RO         3346    i.USBH_USR_DeviceSpeedDetected  usbh_usr.o
    0x08009b58   0x00000038   Code   RO         3347    i.USBH_USR_Device_DescAvailable  usbh_usr.o
    0x08009b90   0x00000020   Code   RO         3348    i.USBH_USR_EnumerationDone  usbh_usr.o
    0x08009bb0   0x00000070   Code   RO         3349    i.USBH_USR_Init     usbh_usr.o
    0x08009c20   0x00000054   Code   RO         3350    i.USBH_USR_MSC_Application  usbh_usr.o
    0x08009c74   0x00000024   Code   RO         3351    i.USBH_USR_Manufacturer_String  usbh_usr.o
    0x08009c98   0x00000020   Code   RO         3352    i.USBH_USR_OverCurrentDetected  usbh_usr.o
    0x08009cb8   0x00000020   Code   RO         3353    i.USBH_USR_Product_String  usbh_usr.o
    0x08009cd8   0x0000001c   Code   RO         3354    i.USBH_USR_ResetDevice  usbh_usr.o
    0x08009cf4   0x00000024   Code   RO         3355    i.USBH_USR_SerialNum_String  usbh_usr.o
    0x08009d18   0x00000024   Code   RO         3356    i.USBH_USR_UnrecoveredError  usbh_usr.o
    0x08009d3c   0x00000020   Code   RO         3357    i.USBH_USR_UserInput  usbh_usr.o
    0x08009d5c   0x00000002   Code   RO         3277    i.USB_OTG_BSP_ConfigVBUS  usb_bsp.o
    0x08009d5e   0x00000002   Code   RO         3279    i.USB_OTG_BSP_DriveVBUS  usb_bsp.o
    0x08009d60   0x00000012   Code   RO         3280    i.USB_OTG_BSP_EnableInterrupt  usb_bsp.o
    0x08009d72   0x00000002   PAD
    0x08009d74   0x0000006c   Code   RO         3281    i.USB_OTG_BSP_Init  usb_bsp.o
    0x08009de0   0x0000000c   Code   RO         3282    i.USB_OTG_BSP_mDelay  usb_bsp.o
    0x08009dec   0x0000000c   Code   RO         3283    i.USB_OTG_BSP_uDelay  usb_bsp.o
    0x08009df8   0x00000126   Code   RO         2465    i.USB_OTG_CoreInit  usb_core.o
    0x08009f1e   0x000000d6   Code   RO         2466    i.USB_OTG_CoreInitHost  usb_core.o
    0x08009ff4   0x00000070   Code   RO         2467    i.USB_OTG_CoreReset  usb_core.o
    0x0800a064   0x00000022   Code   RO         2468    i.USB_OTG_DisableGlobalInt  usb_core.o
    0x0800a086   0x0000005c   Code   RO         2469    i.USB_OTG_DriveVbus  usb_core.o
    0x0800a0e2   0x00000034   Code   RO         2470    i.USB_OTG_EnableCommonInt  usb_core.o
    0x0800a116   0x00000022   Code   RO         2471    i.USB_OTG_EnableGlobalInt  usb_core.o
    0x0800a138   0x00000074   Code   RO         2472    i.USB_OTG_EnableHostInt  usb_core.o
    0x0800a1ac   0x0000004c   Code   RO         2473    i.USB_OTG_FlushRxFifo  usb_core.o
    0x0800a1f8   0x00000054   Code   RO         2474    i.USB_OTG_FlushTxFifo  usb_core.o
    0x0800a24c   0x0000000c   Code   RO         2475    i.USB_OTG_GetMode   usb_core.o
    0x0800a258   0x0000005a   Code   RO         2476    i.USB_OTG_HC_DoPing  usb_core.o
    0x0800a2b2   0x00000082   Code   RO         2477    i.USB_OTG_HC_Halt   usb_core.o
    0x0800a334   0x00000238   Code   RO         2478    i.USB_OTG_HC_Init   usb_core.o
    0x0800a56c   0x000001f6   Code   RO         2479    i.USB_OTG_HC_StartXfer  usb_core.o
    0x0800a762   0x00000018   Code   RO         2480    i.USB_OTG_InitFSLSPClkSel  usb_core.o
    0x0800a77a   0x00000010   Code   RO         2482    i.USB_OTG_IsEvenFrame  usb_core.o
    0x0800a78a   0x00000014   Code   RO         2483    i.USB_OTG_IsHostMode  usb_core.o
    0x0800a79e   0x00000010   Code   RO         2484    i.USB_OTG_ReadCoreItr  usb_core.o
    0x0800a7ae   0x00000030   Code   RO         2485    i.USB_OTG_ReadHPRT0  usb_core.o
    0x0800a7de   0x00000008   Code   RO         2486    i.USB_OTG_ReadHostAllChannels_intr  usb_core.o
    0x0800a7e6   0x00000028   Code   RO         2488    i.USB_OTG_ReadPacket  usb_core.o
    0x0800a80e   0x00000040   Code   RO         2489    i.USB_OTG_ResetPort  usb_core.o
    0x0800a84e   0x00000002   PAD
    0x0800a850   0x000000d0   Code   RO         2490    i.USB_OTG_SelectCore  usb_core.o
    0x0800a920   0x0000004e   Code   RO         2491    i.USB_OTG_SetCurrentMode  usb_core.o
    0x0800a96e   0x00000002   PAD
    0x0800a970   0x0000002c   Code   RO         2744    i.USB_OTG_USBH_handle_Disconnect_ISR  usb_hcd_int.o
    0x0800a99c   0x00000046   Code   RO         2745    i.USB_OTG_USBH_handle_IncompletePeriodicXfer_ISR  usb_hcd_int.o
    0x0800a9e2   0x00000056   Code   RO         2746    i.USB_OTG_USBH_handle_hc_ISR  usb_hcd_int.o
    0x0800aa38   0x0000042a   Code   RO         2747    i.USB_OTG_USBH_handle_hc_n_In_ISR  usb_hcd_int.o
    0x0800ae62   0x00000002   PAD
    0x0800ae64   0x000003e0   Code   RO         2748    i.USB_OTG_USBH_handle_hc_n_Out_ISR  usb_hcd_int.o
    0x0800b244   0x0000012e   Code   RO         2749    i.USB_OTG_USBH_handle_nptxfempty_ISR  usb_hcd_int.o
    0x0800b372   0x00000002   PAD
    0x0800b374   0x00000120   Code   RO         2750    i.USB_OTG_USBH_handle_port_ISR  usb_hcd_int.o
    0x0800b494   0x0000012e   Code   RO         2751    i.USB_OTG_USBH_handle_ptxfempty_ISR  usb_hcd_int.o
    0x0800b5c2   0x00000164   Code   RO         2752    i.USB_OTG_USBH_handle_rx_qlvl_ISR  usb_hcd_int.o
    0x0800b726   0x00000002   PAD
    0x0800b728   0x0000002c   Code   RO         2753    i.USB_OTG_USBH_handle_sof_ISR  usb_hcd_int.o
    0x0800b754   0x00000040   Code   RO         2493    i.USB_OTG_WritePacket  usb_core.o
    0x0800b794   0x00000188   Code   RO           12    i.USH_User_App      test.o
    0x0800b91c   0x00000058   Code   RO          928    i.W25QXX_Erase_Sector  w25qxx.o
    0x0800b974   0x00000080   Code   RO          929    i.W25QXX_Init       w25qxx.o
    0x0800b9f4   0x00000050   Code   RO          931    i.W25QXX_Read       w25qxx.o
    0x0800ba44   0x00000048   Code   RO          932    i.W25QXX_ReadID     w25qxx.o
    0x0800ba8c   0x0000002c   Code   RO          933    i.W25QXX_ReadSR     w25qxx.o
    0x0800bab8   0x00000012   Code   RO          935    i.W25QXX_Wait_Busy  w25qxx.o
    0x0800baca   0x00000002   PAD
    0x0800bacc   0x000000b8   Code   RO          936    i.W25QXX_Write      w25qxx.o
    0x0800bb84   0x00000020   Code   RO          938    i.W25QXX_Write_Enable  w25qxx.o
    0x0800bba4   0x00000046   Code   RO          939    i.W25QXX_Write_NoCheck  w25qxx.o
    0x0800bbea   0x00000002   PAD
    0x0800bbec   0x00000054   Code   RO          940    i.W25QXX_Write_Page  w25qxx.o
    0x0800bc40   0x0000000e   Code   RO         3599    i._is_digit         c_w.l(__printf_wp.o)
    0x0800bc4e   0x00000006   Code   RO          355    i._sys_exit         usart.o
    0x0800bc54   0x000000e0   Code   RO         1902    i.ai_draw_init      piclib.o
    0x0800bd34   0x000000d0   Code   RO         1903    i.ai_load_picfile   piclib.o
    0x0800be04   0x0000001e   Code   RO         2142    i.alloc_pool        tjpgd.o
    0x0800be22   0x00000090   Code   RO         2143    i.bitext            tjpgd.o
    0x0800beb2   0x00000002   PAD
    0x0800beb4   0x000002a8   Code   RO         2144    i.block_idct        tjpgd.o
    0x0800c15c   0x0000001a   Code   RO         1557    i.char_upper        exfuns.o
    0x0800c176   0x00000002   PAD
    0x0800c178   0x00000090   Code   RO         1116    i.check_fs          ff.o
    0x0800c208   0x00000014   Code   RO         1117    i.chk_chr           ff.o
    0x0800c21c   0x00000032   Code   RO         1118    i.clmt_clust        ff.o
    0x0800c24e   0x0000001a   Code   RO         1119    i.clust2sect        ff.o
    0x0800c268   0x00000090   Code   RO         1120    i.cmp_lfn           ff.o
    0x0800c2f8   0x00000012   Code   RO          703    i.convert_from_bytes_to_power_of_two  sdio_sdcard.o
    0x0800c30a   0x000000d6   Code   RO         1121    i.create_chain      ff.o
    0x0800c3e0   0x00000134   Code   RO         2145    i.create_huffman_tbl  tjpgd.o
    0x0800c514   0x00000270   Code   RO         1122    i.create_name       ff.o
    0x0800c784   0x00000074   Code   RO         2146    i.create_qt_tbl     tjpgd.o
    0x0800c7f8   0x00000040   Code   RO          219    i.delay_init        delay.o
    0x0800c838   0x00000038   Code   RO          220    i.delay_ms          delay.o
    0x0800c870   0x00000044   Code   RO          221    i.delay_us          delay.o
    0x0800c8b4   0x0000003c   Code   RO          222    i.delay_xms         delay.o
    0x0800c8f0   0x0000005c   Code   RO         1123    i.dir_alloc         ff.o
    0x0800c94c   0x000000ea   Code   RO         1124    i.dir_find          ff.o
    0x0800ca36   0x00000110   Code   RO         1125    i.dir_next          ff.o
    0x0800cb46   0x000000c4   Code   RO         1126    i.dir_read          ff.o
    0x0800cc0a   0x0000012a   Code   RO         1127    i.dir_register      ff.o
    0x0800cd34   0x0000006a   Code   RO         1128    i.dir_remove        ff.o
    0x0800cd9e   0x0000009e   Code   RO         1129    i.dir_sdi           ff.o
    0x0800ce3c   0x0000004c   Code   RO         1472    i.disk_initialize   diskio.o
    0x0800ce88   0x000000fc   Code   RO         1473    i.disk_ioctl        diskio.o
    0x0800cf84   0x0000008c   Code   RO         1474    i.disk_read         diskio.o
    0x0800d010   0x00000006   Code   RO         1475    i.disk_status       diskio.o
    0x0800d016   0x0000008c   Code   RO         1476    i.disk_write        diskio.o
    0x0800d0a2   0x0000004a   Code   RO         1558    i.exf_getfree       exfuns.o
    0x0800d0ec   0x00000084   Code   RO         1559    i.exfuns_init       exfuns.o
    0x0800d170   0x00000024   Code   RO         1131    i.f_close           ff.o
    0x0800d194   0x00000016   Code   RO         1132    i.f_closedir        ff.o
    0x0800d1aa   0x00000102   Code   RO         1133    i.f_getfree         ff.o
    0x0800d2ac   0x000000be   Code   RO         1134    i.f_getlabel        ff.o
    0x0800d36a   0x00000052   Code   RO         1135    i.f_gets            ff.o
    0x0800d3bc   0x0000028e   Code   RO         1136    i.f_lseek           ff.o
    0x0800d64a   0x0000017c   Code   RO         1137    i.f_mkdir           ff.o
    0x0800d7c6   0x00000002   PAD
    0x0800d7c8   0x00000640   Code   RO         1138    i.f_mkfs            ff.o
    0x0800de08   0x0000005c   Code   RO         1139    i.f_mount           ff.o
    0x0800de64   0x00000180   Code   RO         1140    i.f_open            ff.o
    0x0800dfe4   0x00000088   Code   RO         1141    i.f_opendir         ff.o
    0x0800e06c   0x00000040   Code   RO         1143    i.f_putc            ff.o
    0x0800e0ac   0x0000004a   Code   RO         1144    i.f_puts            ff.o
    0x0800e0f6   0x000001b0   Code   RO         1145    i.f_read            ff.o
    0x0800e2a6   0x00000072   Code   RO         1146    i.f_readdir         ff.o
    0x0800e318   0x0000013a   Code   RO         1147    i.f_rename          ff.o
    0x0800e452   0x00000002   PAD
    0x0800e454   0x000001e8   Code   RO         1148    i.f_setlabel        ff.o
    0x0800e63c   0x000000b0   Code   RO         1150    i.f_sync            ff.o
    0x0800e6ec   0x000000b0   Code   RO         1560    i.f_typetell        exfuns.o
    0x0800e79c   0x000000c2   Code   RO         1152    i.f_unlink          ff.o
    0x0800e85e   0x000001ea   Code   RO         1154    i.f_write           ff.o
    0x0800ea48   0x00000098   Code   RO         1772    i.ff_convert        mycc936.o
    0x0800eae0   0x0000000e   Code   RO         1477    i.ff_memalloc       diskio.o
    0x0800eaee   0x0000000e   Code   RO         1478    i.ff_memfree        diskio.o
    0x0800eafc   0x00000038   Code   RO         1773    i.ff_wtoupper       mycc936.o
    0x0800eb34   0x00000388   Code   RO         1155    i.find_volume       ff.o
    0x0800eebc   0x00000080   Code   RO         1156    i.fit_lfn           ff.o
    0x0800ef3c   0x00000090   Code   RO         1157    i.follow_path       ff.o
    0x0800efcc   0x00000044   Code   RO         1807    i.font_init         fontupd.o
    0x0800f010   0x0000001c   Code   RO          356    i.fputc             usart.o
    0x0800f02c   0x000000c8   Code   RO         1158    i.gen_numname       ff.o
    0x0800f0f4   0x000000e8   Code   RO         1159    i.get_fat           ff.o
    0x0800f1dc   0x00000004   Code   RO         1479    i.get_fattime       diskio.o
    0x0800f1e0   0x0000010c   Code   RO         1160    i.get_fileinfo      ff.o
    0x0800f2ec   0x0000004a   Code   RO         1161    i.get_ldnumber      ff.o
    0x0800f336   0x00000058   Code   RO         2025    i.gif_check_head    gif.o
    0x0800f38e   0x00000002   PAD
    0x0800f390   0x000001f4   Code   RO         2026    i.gif_clear2bkcolor  gif.o
    0x0800f584   0x0000012c   Code   RO         2027    i.gif_decode        gif.o
    0x0800f6b0   0x00000228   Code   RO         2028    i.gif_dispimage     gif.o
    0x0800f8d8   0x00000154   Code   RO         2029    i.gif_drawimage     gif.o
    0x0800fa2c   0x00000060   Code   RO         2030    i.gif_getdatablock  gif.o
    0x0800fa8c   0x00000046   Code   RO         2031    i.gif_getinfo       gif.o
    0x0800fad2   0x00000358   Code   RO         2032    i.gif_getnextbyte   gif.o
    0x0800fe2a   0x00000002   PAD
    0x0800fe2c   0x000001c8   Code   RO         2033    i.gif_getnextcode   gif.o
    0x0800fff4   0x0000001c   Code   RO         2034    i.gif_getrgb565     gif.o
    0x08010010   0x00000098   Code   RO         2035    i.gif_initlzw       gif.o
    0x080100a8   0x00000040   Code   RO         2037    i.gif_readcolortbl  gif.o
    0x080100e8   0x000000a0   Code   RO         2038    i.gif_readextension  gif.o
    0x08010188   0x00000026   Code   RO         2039    i.gif_recovergctbl  gif.o
    0x080101ae   0x00000026   Code   RO         2040    i.gif_savegctbl     gif.o
    0x080101d4   0x000000c0   Code   RO         2147    i.huffext           tjpgd.o
    0x08010294   0x00000028   Code   RO         1904    i.is_element_ok     piclib.o
    0x080102bc   0x000000a2   Code   RO         2148    i.jd_decomp         tjpgd.o
    0x0801035e   0x0000039c   Code   RO         2149    i.jd_prepare        tjpgd.o
    0x080106fa   0x00000002   PAD
    0x080106fc   0x00000028   Code   RO         2150    i.jpeg_freeall      tjpgd.o
    0x08010724   0x00000030   Code   RO         2151    i.jpeg_in_func      tjpgd.o
    0x08010754   0x00000054   Code   RO         2152    i.jpeg_mallocall    tjpgd.o
    0x080107a8   0x00000054   Code   RO         2153    i.jpeg_out_func_fill  tjpgd.o
    0x080107fc   0x000000c0   Code   RO         2154    i.jpeg_out_func_point  tjpgd.o
    0x080108bc   0x00000104   Code   RO         2155    i.jpg_decode        tjpgd.o
    0x080109c0   0x00000020   Code   RO         1162    i.ld_clust          ff.o
    0x080109e0   0x0000022c   Code   RO           13    i.main              test.o
    0x08010c0c   0x000001e4   Code   RO         2156    i.mcu_load          tjpgd.o
    0x08010df0   0x00000394   Code   RO         2157    i.mcu_output        tjpgd.o
    0x08011184   0x000000cc   Code   RO         3358    i.md_send           usbh_usr.o
    0x08011250   0x00000026   Code   RO         1163    i.mem_cmp           ff.o
    0x08011276   0x0000001a   Code   RO         1164    i.mem_cpy           ff.o
    0x08011290   0x00000014   Code   RO         1165    i.mem_set           ff.o
    0x080112a4   0x00000014   Code   RO         1611    i.mf_close          fattester.o
    0x080112b8   0x00000010   Code   RO         1612    i.mf_closedir       fattester.o
    0x080112c8   0x00000014   Code   RO         1613    i.mf_fmkfs          fattester.o
    0x080112dc   0x00000084   Code   RO         1614    i.mf_getlabel       fattester.o
    0x08011360   0x0000004c   Code   RO         1615    i.mf_gets           fattester.o
    0x080113ac   0x00000014   Code   RO         1616    i.mf_lseek          fattester.o
    0x080113c0   0x0000000c   Code   RO         1617    i.mf_mkdir          fattester.o
    0x080113cc   0x00000018   Code   RO         1618    i.mf_mount          fattester.o
    0x080113e4   0x0000001c   Code   RO         1619    i.mf_open           fattester.o
    0x08011400   0x00000014   Code   RO         1620    i.mf_opendir        fattester.o
    0x08011414   0x00000018   Code   RO         1621    i.mf_putc           fattester.o
    0x0801142c   0x00000018   Code   RO         1622    i.mf_puts           fattester.o
    0x08011444   0x00000158   Code   RO         1623    i.mf_read           fattester.o
    0x0801159c   0x00000194   Code   RO         1624    i.mf_readdir        fattester.o
    0x08011730   0x00000010   Code   RO         1625    i.mf_rename         fattester.o
    0x08011740   0x00000090   Code   RO         1626    i.mf_scan_files     fattester.o
    0x080117d0   0x0000005c   Code   RO         1627    i.mf_setlabel       fattester.o
    0x0801182c   0x000000a8   Code   RO         1628    i.mf_showfree       fattester.o
    0x080118d4   0x0000000c   Code   RO         1629    i.mf_size           fattester.o
    0x080118e0   0x0000000c   Code   RO         1630    i.mf_tell           fattester.o
    0x080118ec   0x0000000c   Code   RO         1631    i.mf_unlink         fattester.o
    0x080118f8   0x000000b8   Code   RO         1632    i.mf_write          fattester.o
    0x080119b0   0x000003d0   Code   RO         1990    i.minibmp_decode    bmp.o
    0x08011d80   0x00000032   Code   RO         1166    i.move_window       ff.o
    0x08011db2   0x00000002   PAD
    0x08011db4   0x0000006c   Code   RO         1038    i.my_mem_free       malloc.o
    0x08011e20   0x00000044   Code   RO         1039    i.my_mem_init       malloc.o
    0x08011e64   0x000000a8   Code   RO         1040    i.my_mem_malloc     malloc.o
    0x08011f0c   0x00000040   Code   RO         1041    i.my_mem_perused    malloc.o
    0x08011f4c   0x00000024   Code   RO         1042    i.myfree            malloc.o
    0x08011f70   0x00000028   Code   RO         1043    i.mymalloc          malloc.o
    0x08011f98   0x00000014   Code   RO         1045    i.mymemset          malloc.o
    0x08011fac   0x0000000e   Code   RO          455    i.opt_delay         ili93xx.o
    0x08011fba   0x0000000e   Code   RO         1905    i.pic_memalloc      piclib.o
    0x08011fc8   0x0000000e   Code   RO         1906    i.pic_memfree       piclib.o
    0x08011fd6   0x00000002   PAD
    0x08011fd8   0x00000074   Code   RO         1167    i.pick_lfn          ff.o
    0x0801204c   0x00000030   Code   RO         1907    i.piclib_alpha_blend  piclib.o
    0x0801207c   0x00000038   Code   RO         1908    i.piclib_draw_hline  piclib.o
    0x080120b4   0x0000002c   Code   RO         1909    i.piclib_fill_color  piclib.o
    0x080120e0   0x0000005c   Code   RO         1910    i.piclib_init       piclib.o
    0x0801213c   0x00000136   Code   RO         1168    i.put_fat           ff.o
    0x08012272   0x00000044   Code   RO         1169    i.putc_bfd          ff.o
    0x080122b6   0x00000006   Code   RO         2271    i.read_addr         usmart.o
    0x080122bc   0x0000006c   Code   RO         1170    i.remove_chain      ff.o
    0x08012328   0x00000070   Code   RO         2158    i.restart           tjpgd.o
    0x08012398   0x00000010   Code   RO         1171    i.st_clust          ff.o
    0x080123a8   0x000002d0   Code   RO         1991    i.stdbmp_decode     bmp.o
    0x08012678   0x00000020   Code   RO         1172    i.sum_sfn           ff.o
    0x08012698   0x000000c8   Code   RO         1173    i.sync_fs           ff.o
    0x08012760   0x0000004c   Code   RO         1174    i.sync_window       ff.o
    0x080127ac   0x00000100   Code   RO          357    i.uart_init         usart.o
    0x080128ac   0x000000b0   Code   RO         2272    i.usmart_cmd_rec    usmart.o
    0x0801295c   0x000002d4   Code   RO         2273    i.usmart_exe        usmart.o
    0x08012c30   0x000000d4   Code   RO         2385    i.usmart_get_aparm  usmart_str.o
    0x08012d04   0x00000036   Code   RO         2386    i.usmart_get_cmdname  usmart_str.o
    0x08012d3a   0x00000002   PAD
    0x08012d3c   0x000001c0   Code   RO         2387    i.usmart_get_fname  usmart_str.o
    0x08012efc   0x0000010c   Code   RO         2388    i.usmart_get_fparam  usmart_str.o
    0x08013008   0x00000020   Code   RO         2389    i.usmart_get_parmpos  usmart_str.o
    0x08013028   0x00000040   Code   RO         2274    i.usmart_get_runtime  usmart.o
    0x08013068   0x00000028   Code   RO         2275    i.usmart_init       usmart.o
    0x08013090   0x00000016   Code   RO         2390    i.usmart_pow        usmart_str.o
    0x080130a6   0x00000002   PAD
    0x080130a8   0x00000030   Code   RO         2276    i.usmart_reset_runtime  usmart.o
    0x080130d8   0x000000bc   Code   RO         2277    i.usmart_scan       usmart.o
    0x08013194   0x00000016   Code   RO         2391    i.usmart_search_nextc  usmart_str.o
    0x080131aa   0x00000106   Code   RO         2392    i.usmart_str2num    usmart_str.o
    0x080132b0   0x00000022   Code   RO         2393    i.usmart_strcmp     usmart_str.o
    0x080132d2   0x00000016   Code   RO         2394    i.usmart_strcopy    usmart_str.o
    0x080132e8   0x00000018   Code   RO         2395    i.usmart_strlen     usmart_str.o
    0x08013300   0x000006f4   Code   RO         2278    i.usmart_sys_cmd_exe  usmart.o
    0x080139f4   0x00000036   Code   RO         1175    i.validate          ff.o
    0x08013a2a   0x00000004   Code   RO         2279    i.write_addr        usmart.o
    0x08013a2e   0x0000000a   Code   RO         3749    x$fpl$fpinit        fz_wm.l(fpinit.o)
    0x08013a38   0x000017c0   Data   RO          457    .constdata          ili93xx.o
    0x080151f8   0x00000024   Data   RO         1052    .constdata          malloc.o
    0x0801521c   0x0000003a   Data   RO         1177    .constdata          ff.o
    0x08015256   0x00000002   PAD
    0x08015258   0x00000070   Data   RO         1562    .constdata          exfuns.o
    0x080152c8   0x000003c0   Data   RO         1774    .constdata          mycc936.o
    0x08015688   0x00000028   Data   RO         2041    .constdata          gif.o
    0x080156b0   0x000004c0   Data   RO         2159    .constdata          tjpgd.o
    0x08015b70   0x00000028   Data   RO         3572    .constdata          c_w.l(_printf_hex_int.o)
    0x08015b98   0x00000011   Data   RO         3607    .constdata          c_w.l(__printf_flags_ss_wp.o)
    0x08015ba9   0x00000003   PAD
    0x08015bac   0x00000044   Data   RO         1563    .conststring        exfuns.o
    0x08015bf0   0x00000028   Data   RO         2280    .conststring        usmart.o
    0x08015c18   0x00000331   Data   RO         2353    .conststring        usmart_config.o
    0x08015f49   0x00000003   PAD
    0x08015f4c   0x00000022   Data   RO         3502    .conststring        usbusr.o
    0x08015f6e   0x00000002   PAD
    0x08015f70   0x00000020   Data   RO         3806    Region$$Table       anon$$obj.o


    Execution Region RW_IRAM1 (Base: 0x20000000, Size: 0x0001d910, Max: 0x00020000, ABSOLUTE, COMPRESSED[0x00000194])

    Base Addr    Size         Type   Attr      Idx    E Section Name        Object

    0x20000000   0x00000004   Data   RW          223    .data               delay.o
    0x20000004   0x00000006   Data   RW          359    .data               usart.o
    0x2000000a   0x00000004   Data   RW          458    .data               ili93xx.o
    0x2000000e   0x00000002   PAD
    0x20000010   0x00000010   Data   RW          705    .data               sdio_sdcard.o
    0x20000020   0x00000002   Data   RW          943    .data               w25qxx.o
    0x20000022   0x00000002   PAD
    0x20000024   0x00000024   Data   RW         1053    .data               malloc.o
    0x20000048   0x00000002   Data   RW         1178    .data               ff.o
    0x2000004a   0x00000002   Data   RW         1480    .data               diskio.o
    0x2000004c   0x00000014   Data   RW         1564    .data               exfuns.o
    0x20000060   0x00000001   Data   RW         2042    .data               gif.o
    0x20000061   0x00000003   PAD
    0x20000064   0x0000000c   Data   RW         2160    .data               tjpgd.o
    0x20000070   0x0000001c   Data   RW         2281    .data               usmart.o
    0x2000008c   0x000001d4   Data   RW         2354    .data               usmart_config.o
    0x20000260   0x00000012   Data   RW         2822    .data               usbh_core.o
    0x20000272   0x00000003   Data   RW         3029    .data               usbh_stdreq.o
    0x20000275   0x00000003   PAD
    0x20000278   0x00000011   Data   RW         3119    .data               usbh_msc_bot.o
    0x20000289   0x00000003   PAD
    0x2000028c   0x0000001d   Data   RW         3167    .data               usbh_msc_core.o
    0x200002a9   0x00000001   Data   RW         3227    .data               usbh_msc_scsi.o
    0x200002aa   0x00000002   PAD
    0x200002ac   0x0000004c   Data   RW         3359    .data               usbh_usr.o
    0x200002f8   0x00000064   Data   RW         3503    .data               usbusr.o
    0x2000035c   0x0000063c   Zero   RW           14    .bss                test.o
    0x20000998   0x000000c8   Zero   RW          358    .bss                usart.o
    0x20000a60   0x0000000e   Zero   RW          456    .bss                ili93xx.o
    0x20000a6e   0x00000002   PAD
    0x20000a70   0x00000278   Zero   RW          704    .bss                sdio_sdcard.o
    0x20000ce8   0x00001000   Zero   RW          942    .bss                w25qxx.o
    0x20001ce8   0x00000018   PAD
    0x20001d00   0x0001a900   Zero   RW         1051    .bss                malloc.o
    0x2001c600   0x0000000c   Zero   RW         1176    .bss                ff.o
    0x2001c60c   0x00000050   Zero   RW         1561    .bss                exfuns.o
    0x2001c65c   0x00000021   Zero   RW         1811    .bss                fontupd.o
    0x2001c67d   0x00000003   PAD
    0x2001c680   0x0000003c   Zero   RW         1911    .bss                piclib.o
    0x2001c6bc   0x00000200   Zero   RW         3028    .bss                usbh_stdreq.o
    0x2001c8bc   0x00000040   Zero   RW         3118    .bss                usbh_msc_bot.o
    0x2001c8fc   0x0000020a   Zero   RW         3166    .bss                usbh_msc_core.o
    0x2001cb06   0x00000002   PAD
    0x2001cb08   0x00000410   Zero   RW         3226    .bss                usbh_msc_scsi.o
    0x2001cf18   0x00000598   Zero   RW         3501    .bss                usbusr.o
    0x2001d4b0   0x00000060   Zero   RW         3683    .bss                c_w.l(libspace.o)
    0x2001d510   0x00000000   Zero   RW            2    HEAP                startup_stm32f40_41xxx.o
    0x2001d510   0x00000400   Zero   RW            1    STACK               startup_stm32f40_41xxx.o



  Load Region LR$$.ARM.__AT_0x10000000 (Base: 0x10000000, Size: 0x00000000, Max: 0x0000f000, ABSOLUTE)

    Execution Region ER$$.ARM.__AT_0x10000000 (Base: 0x10000000, Size: 0x0000f000, Max: 0x0000f000, ABSOLUTE, UNINIT)

    Base Addr    Size         Type   Attr      Idx    E Section Name        Object

    0x10000000   0x0000f000   Zero   RW         1047    .ARM.__AT_0x10000000  malloc.o



  Load Region LR$$.ARM.__AT_0x1000F000 (Base: 0x1000f000, Size: 0x00000000, Max: 0x00000f00, ABSOLUTE)

    Execution Region ER$$.ARM.__AT_0x1000F000 (Base: 0x1000f000, Size: 0x00000f00, Max: 0x00000f00, ABSOLUTE, UNINIT)

    Base Addr    Size         Type   Attr      Idx    E Section Name        Object

    0x1000f000   0x00000f00   Zero   RW         1048    .ARM.__AT_0x1000F000  malloc.o



  Load Region LR$$.ARM.__AT_0x68000000 (Base: 0x68000000, Size: 0x00000000, Max: 0x000f0000, ABSOLUTE)

    Execution Region ER$$.ARM.__AT_0x68000000 (Base: 0x68000000, Size: 0x000f0000, Max: 0x000f0000, ABSOLUTE, UNINIT)

    Base Addr    Size         Type   Attr      Idx    E Section Name        Object

    0x68000000   0x000f0000   Zero   RW         1049    .ARM.__AT_0x68000000  malloc.o



  Load Region LR$$.ARM.__AT_0x680F0000 (Base: 0x680f0000, Size: 0x00000000, Max: 0x0000f000, ABSOLUTE)

    Execution Region ER$$.ARM.__AT_0x680F0000 (Base: 0x680f0000, Size: 0x0000f000, Max: 0x0000f000, ABSOLUTE, UNINIT)

    Base Addr    Size         Type   Attr      Idx    E Section Name        Object

    0x680f0000   0x0000f000   Zero   RW         1050    .ARM.__AT_0x680F0000  malloc.o


==============================================================================

Image component sizes


      Code (inc. data)   RO Data    RW Data    ZI Data      Debug   Object Name

      1696         18          0          0          0       4397   bmp.o
       248         18          0          4          0     229931   delay.o
       646         18          0          2          0      17292   diskio.o
       408         22        180         20         80       3702   exfuns.o
      1804        760          0          0          0      13286   fattester.o
     11854        158         58          2         12      53089   ff.o
        68          4          0          0         33       2009   fontupd.o
      3738         26         40          1          0      14465   gif.o
     17266        202       6080          4         14      25138   ili93xx.o
        80         14          0          0          0        475   key.o
        64         16          0          0          0        475   led.o
       504         60         36         36    1218560       6270   malloc.o
       208         16        960          0          0       1899   mycc936.o
       740         70          0          0         60       8079   piclib.o
      7180        344          0         16        632      33475   sdio_sdcard.o
       268         22          0          0          0       1609   spi.o
        68         24        392          0       1024        864   startup_stm32f40_41xxx.o
       850         44          0          0          0       5362   sys.o
       948        288          0          0       1596     260978   test.o
       618         14          0          0          0       3271   text.o
      4776        128       1216         12          0      22309   tjpgd.o
       418         34          0          6        200       4188   usart.o
       154         12          0          0          0       3588   usb_bsp.o
      2996         18          0          0          0      38079   usb_core.o
       202          0          0          0          0       5219   usb_hcd.o
      3718         24          0          0          0      10619   usb_hcd_int.o
      1734         48          0         18          0       9257   usbh_core.o
       390          0          0          0          0       4664   usbh_hcs.o
       560          0          0          0          0       5594   usbh_ioreq.o
      1140        100          0         17         64       6961   usbh_msc_bot.o
      1484        528          0         29        522       6909   usbh_msc_core.o
      1360        130          0          1       1040       7440   usbh_msc_scsi.o
       942         14          0          3        512      10537   usbh_stdreq.o
      1328        674          0         76          0      13880   usbh_usr.o
      1866        376         34        100       1432       6248   usbusr.o
      3170       1350         40         28          0       7602   usmart.o
         0          0        817        468          0       1584   usmart_config.o
      1400         20          0          0          0       8681   usmart_str.o
       800         78          0          2       4096       6805   w25qxx.o

    ----------------------------------------------------------------------
     77756       5672       9892        860    1229908     866230   Object Totals
         0          0         32          0          0          0   (incl. Generated)
        62          0          7         15         31          0   (incl. Padding)

    ----------------------------------------------------------------------

      Code (inc. data)   RO Data    RW Data    ZI Data      Debug   Library Member Name

        90          0          0          0          0          0   __dczerorl2.o
         8          0          0          0          0         68   __main.o
       392          4         17          0          0         92   __printf_flags_ss_wp.o
        14          0          0          0          0         68   __printf_wp.o
        52          8          0          0          0          0   __scatter.o
        28          0          0          0          0          0   __scatter_zi.o
         6          0          0          0          0          0   _printf_c.o
        44          0          0          0          0        108   _printf_char.o
        48          6          0          0          0         96   _printf_char_common.o
        36          4          0          0          0         80   _printf_char_file.o
         6          0          0          0          0          0   _printf_d.o
       116         16          0          0          0         92   _printf_dec.o
        88          4         40          0          0         88   _printf_hex_int.o
       178          0          0          0          0         88   _printf_intcommon.o
        78          0          0          0          0        108   _printf_pad.o
         0          0          0          0          0          0   _printf_percent.o
         4          0          0          0          0          0   _printf_percent_end.o
         6          0          0          0          0          0   _printf_s.o
        82          0          0          0          0         80   _printf_str.o
         6          0          0          0          0          0   _printf_u.o
         6          0          0          0          0          0   _printf_x.o
        12          0          0          0          0         72   exit.o
         8          0          0          0          0         68   ferror.o
         6          0          0          0          0        152   heapauxi.o
         2          0          0          0          0          0   libinit.o
         6          0          0          0          0          0   libinit2.o
         2          0          0          0          0          0   libshutdown.o
         2          0          0          0          0          0   libshutdown2.o
         8          4          0          0         96         68   libspace.o
        72          0          0          0          0         76   llsdiv.o
       238          0          0          0          0        100   lludivv7m.o
        24          4          0          0          0         84   noretval__2printf.o
       138          0          0          0          0         68   rt_memcpy_v6.o
       100          0          0          0          0         80   rt_memcpy_w.o
         0          0          0          0          0          0   rtentry.o
        12          0          0          0          0          0   rtentry2.o
         6          0          0          0          0          0   rtentry4.o
         2          0          0          0          0          0   rtexit.o
        10          0          0          0          0          0   rtexit2.o
       128          0          0          0          0         68   strcmpv7m.o
        72          0          0          0          0         80   strcpy.o
        62          0          0          0          0         76   strlen.o
        74          0          0          0          0         80   sys_stackheap_outer.o
         2          0          0          0          0         68   use_no_semi.o
         2          0          0          0          0         68   use_no_semi_2.o
        10          0          0          0          0        116   fpinit.o

    ----------------------------------------------------------------------
      2292         50         60          0         96       2292   Library Totals
         6          0          3          0          0          0   (incl. Padding)

    ----------------------------------------------------------------------

      Code (inc. data)   RO Data    RW Data    ZI Data      Debug   Library Name

      2276         50         57          0         96       2176   c_w.l
        10          0          0          0          0        116   fz_wm.l

    ----------------------------------------------------------------------
      2292         50         60          0         96       2292   Library Totals

    ----------------------------------------------------------------------

==============================================================================


      Code (inc. data)   RO Data    RW Data    ZI Data      Debug   

     80048       5722       9952        860    1230004     830078   Grand Totals
     80048       5722       9952        404    1230004     830078   ELF Image Totals (compressed)
     80048       5722       9952        404          0          0   ROM Totals

==============================================================================

    Total RO  Size (Code + RO Data)                90000 (  87.89kB)
    Total RW  Size (RW Data + ZI Data)           1230864 (1202.02kB)
    Total ROM Size (Code + RO Data + RW Data)      90404 (  88.29kB)

==============================================================================

